
kernel/kernel:     file format elf64-littleriscv


Disassembly of section .text:

0000000080000000 <_entry>:
    80000000:	00009117          	auipc	sp,0x9
    80000004:	be013103          	ld	sp,-1056(sp) # 80008be0 <_GLOBAL_OFFSET_TABLE_+0x8>
    80000008:	6505                	lui	a0,0x1
    8000000a:	f14025f3          	csrr	a1,mhartid
    8000000e:	0585                	addi	a1,a1,1
    80000010:	02b50533          	mul	a0,a0,a1
    80000014:	912a                	add	sp,sp,a0
    80000016:	078000ef          	jal	ra,8000008e <start>

000000008000001a <spin>:
    8000001a:	a001                	j	8000001a <spin>

000000008000001c <timerinit>:
    8000001c:	1141                	addi	sp,sp,-16
    8000001e:	e422                	sd	s0,8(sp)
    80000020:	0800                	addi	s0,sp,16
    80000022:	f14027f3          	csrr	a5,mhartid
    80000026:	0007869b          	sext.w	a3,a5
    8000002a:	0037979b          	slliw	a5,a5,0x3
    8000002e:	02004737          	lui	a4,0x2004
    80000032:	97ba                	add	a5,a5,a4
    80000034:	0200c737          	lui	a4,0x200c
    80000038:	ff873583          	ld	a1,-8(a4) # 200bff8 <_entry-0x7dff4008>
    8000003c:	000f4637          	lui	a2,0xf4
    80000040:	24060613          	addi	a2,a2,576 # f4240 <_entry-0x7ff0bdc0>
    80000044:	95b2                	add	a1,a1,a2
    80000046:	e38c                	sd	a1,0(a5)
    80000048:	00269713          	slli	a4,a3,0x2
    8000004c:	9736                	add	a4,a4,a3
    8000004e:	00371693          	slli	a3,a4,0x3
    80000052:	00009717          	auipc	a4,0x9
    80000056:	bee70713          	addi	a4,a4,-1042 # 80008c40 <timer_scratch>
    8000005a:	9736                	add	a4,a4,a3
    8000005c:	ef1c                	sd	a5,24(a4)
    8000005e:	f310                	sd	a2,32(a4)
    80000060:	34071073          	csrw	mscratch,a4
    80000064:	00006797          	auipc	a5,0x6
    80000068:	53c78793          	addi	a5,a5,1340 # 800065a0 <timervec>
    8000006c:	30579073          	csrw	mtvec,a5
    80000070:	300027f3          	csrr	a5,mstatus
    80000074:	0087e793          	ori	a5,a5,8
    80000078:	30079073          	csrw	mstatus,a5
    8000007c:	304027f3          	csrr	a5,mie
    80000080:	0807e793          	ori	a5,a5,128
    80000084:	30479073          	csrw	mie,a5
    80000088:	6422                	ld	s0,8(sp)
    8000008a:	0141                	addi	sp,sp,16
    8000008c:	8082                	ret

000000008000008e <start>:
    8000008e:	1141                	addi	sp,sp,-16
    80000090:	e406                	sd	ra,8(sp)
    80000092:	e022                	sd	s0,0(sp)
    80000094:	0800                	addi	s0,sp,16
    80000096:	300027f3          	csrr	a5,mstatus
    8000009a:	7779                	lui	a4,0xffffe
    8000009c:	7ff70713          	addi	a4,a4,2047 # ffffffffffffe7ff <end+0xffffffff7f97a537>
    800000a0:	8ff9                	and	a5,a5,a4
    800000a2:	6705                	lui	a4,0x1
    800000a4:	80070713          	addi	a4,a4,-2048 # 800 <_entry-0x7ffff800>
    800000a8:	8fd9                	or	a5,a5,a4
    800000aa:	30079073          	csrw	mstatus,a5
    800000ae:	00001797          	auipc	a5,0x1
    800000b2:	fa478793          	addi	a5,a5,-92 # 80001052 <main>
    800000b6:	34179073          	csrw	mepc,a5
    800000ba:	4781                	li	a5,0
    800000bc:	18079073          	csrw	satp,a5
    800000c0:	67c1                	lui	a5,0x10
    800000c2:	17fd                	addi	a5,a5,-1
    800000c4:	30279073          	csrw	medeleg,a5
    800000c8:	30379073          	csrw	mideleg,a5
    800000cc:	104027f3          	csrr	a5,sie
    800000d0:	2227e793          	ori	a5,a5,546
    800000d4:	10479073          	csrw	sie,a5
    800000d8:	57fd                	li	a5,-1
    800000da:	83a9                	srli	a5,a5,0xa
    800000dc:	3b079073          	csrw	pmpaddr0,a5
    800000e0:	47bd                	li	a5,15
    800000e2:	3a079073          	csrw	pmpcfg0,a5
    800000e6:	00000097          	auipc	ra,0x0
    800000ea:	f36080e7          	jalr	-202(ra) # 8000001c <timerinit>
    800000ee:	f14027f3          	csrr	a5,mhartid
    800000f2:	2781                	sext.w	a5,a5
    800000f4:	823e                	mv	tp,a5
    800000f6:	30200073          	mret
    800000fa:	60a2                	ld	ra,8(sp)
    800000fc:	6402                	ld	s0,0(sp)
    800000fe:	0141                	addi	sp,sp,16
    80000100:	8082                	ret

0000000080000102 <consolewrite>:
//
// user write()s to the console go here.
//
int
consolewrite(int user_src, uint64 src, int n)
{
    80000102:	715d                	addi	sp,sp,-80
    80000104:	e486                	sd	ra,72(sp)
    80000106:	e0a2                	sd	s0,64(sp)
    80000108:	fc26                	sd	s1,56(sp)
    8000010a:	f84a                	sd	s2,48(sp)
    8000010c:	f44e                	sd	s3,40(sp)
    8000010e:	f052                	sd	s4,32(sp)
    80000110:	ec56                	sd	s5,24(sp)
    80000112:	0880                	addi	s0,sp,80
  int i;

  for(i = 0; i < n; i++){
    80000114:	04c05663          	blez	a2,80000160 <consolewrite+0x5e>
    80000118:	8a2a                	mv	s4,a0
    8000011a:	84ae                	mv	s1,a1
    8000011c:	89b2                	mv	s3,a2
    8000011e:	4901                	li	s2,0
    char c;
    if(either_copyin(&c, user_src, src+i, 1) == -1)
    80000120:	5afd                	li	s5,-1
    80000122:	4685                	li	a3,1
    80000124:	8626                	mv	a2,s1
    80000126:	85d2                	mv	a1,s4
    80000128:	fbf40513          	addi	a0,s0,-65
    8000012c:	00003097          	auipc	ra,0x3
    80000130:	92c080e7          	jalr	-1748(ra) # 80002a58 <either_copyin>
    80000134:	01550c63          	beq	a0,s5,8000014c <consolewrite+0x4a>
      break;
    uartputc(c);
    80000138:	fbf44503          	lbu	a0,-65(s0)
    8000013c:	00000097          	auipc	ra,0x0
    80000140:	794080e7          	jalr	1940(ra) # 800008d0 <uartputc>
  for(i = 0; i < n; i++){
    80000144:	2905                	addiw	s2,s2,1
    80000146:	0485                	addi	s1,s1,1
    80000148:	fd299de3          	bne	s3,s2,80000122 <consolewrite+0x20>
  }

  return i;
}
    8000014c:	854a                	mv	a0,s2
    8000014e:	60a6                	ld	ra,72(sp)
    80000150:	6406                	ld	s0,64(sp)
    80000152:	74e2                	ld	s1,56(sp)
    80000154:	7942                	ld	s2,48(sp)
    80000156:	79a2                	ld	s3,40(sp)
    80000158:	7a02                	ld	s4,32(sp)
    8000015a:	6ae2                	ld	s5,24(sp)
    8000015c:	6161                	addi	sp,sp,80
    8000015e:	8082                	ret
  for(i = 0; i < n; i++){
    80000160:	4901                	li	s2,0
    80000162:	b7ed                	j	8000014c <consolewrite+0x4a>

0000000080000164 <consoleread>:
// user_dist indicates whether dst is a user
// or kernel address.
//
int
consoleread(int user_dst, uint64 dst, int n)
{
    80000164:	7119                	addi	sp,sp,-128
    80000166:	fc86                	sd	ra,120(sp)
    80000168:	f8a2                	sd	s0,112(sp)
    8000016a:	f4a6                	sd	s1,104(sp)
    8000016c:	f0ca                	sd	s2,96(sp)
    8000016e:	ecce                	sd	s3,88(sp)
    80000170:	e8d2                	sd	s4,80(sp)
    80000172:	e4d6                	sd	s5,72(sp)
    80000174:	e0da                	sd	s6,64(sp)
    80000176:	fc5e                	sd	s7,56(sp)
    80000178:	f862                	sd	s8,48(sp)
    8000017a:	f466                	sd	s9,40(sp)
    8000017c:	f06a                	sd	s10,32(sp)
    8000017e:	ec6e                	sd	s11,24(sp)
    80000180:	0100                	addi	s0,sp,128
    80000182:	8b2a                	mv	s6,a0
    80000184:	8aae                	mv	s5,a1
    80000186:	8a32                	mv	s4,a2
  uint target;
  int c;
  char cbuf;

  target = n;
    80000188:	00060b9b          	sext.w	s7,a2
  acquire(&cons.lock);
    8000018c:	00011517          	auipc	a0,0x11
    80000190:	bf450513          	addi	a0,a0,-1036 # 80010d80 <cons>
    80000194:	00001097          	auipc	ra,0x1
    80000198:	c14080e7          	jalr	-1004(ra) # 80000da8 <acquire>
  while(n > 0){
    // wait until interrupt handler has put some
    // input into cons.buffer.
    while(cons.r == cons.w){
    8000019c:	00011497          	auipc	s1,0x11
    800001a0:	be448493          	addi	s1,s1,-1052 # 80010d80 <cons>
      if(killed(myproc())){
        release(&cons.lock);
        return -1;
      }
      sleep(&cons.r, &cons.lock);
    800001a4:	89a6                	mv	s3,s1
    800001a6:	00011917          	auipc	s2,0x11
    800001aa:	c7290913          	addi	s2,s2,-910 # 80010e18 <cons+0x98>
    }

    c = cons.buf[cons.r++ % INPUT_BUF_SIZE];

    if(c == C('D')){  // end-of-file
    800001ae:	4c91                	li	s9,4
      break;
    }

    // copy the input byte to the user-space buffer.
    cbuf = c;
    if(either_copyout(user_dst, dst, &cbuf, 1) == -1)
    800001b0:	5d7d                	li	s10,-1
      break;

    dst++;
    --n;

    if(c == '\n'){
    800001b2:	4da9                	li	s11,10
  while(n > 0){
    800001b4:	07405b63          	blez	s4,8000022a <consoleread+0xc6>
    while(cons.r == cons.w){
    800001b8:	0984a783          	lw	a5,152(s1)
    800001bc:	09c4a703          	lw	a4,156(s1)
    800001c0:	02f71763          	bne	a4,a5,800001ee <consoleread+0x8a>
      if(killed(myproc())){
    800001c4:	00002097          	auipc	ra,0x2
    800001c8:	af4080e7          	jalr	-1292(ra) # 80001cb8 <myproc>
    800001cc:	00003097          	auipc	ra,0x3
    800001d0:	800080e7          	jalr	-2048(ra) # 800029cc <killed>
    800001d4:	e535                	bnez	a0,80000240 <consoleread+0xdc>
      sleep(&cons.r, &cons.lock);
    800001d6:	85ce                	mv	a1,s3
    800001d8:	854a                	mv	a0,s2
    800001da:	00002097          	auipc	ra,0x2
    800001de:	24e080e7          	jalr	590(ra) # 80002428 <sleep>
    while(cons.r == cons.w){
    800001e2:	0984a783          	lw	a5,152(s1)
    800001e6:	09c4a703          	lw	a4,156(s1)
    800001ea:	fcf70de3          	beq	a4,a5,800001c4 <consoleread+0x60>
    c = cons.buf[cons.r++ % INPUT_BUF_SIZE];
    800001ee:	0017871b          	addiw	a4,a5,1
    800001f2:	08e4ac23          	sw	a4,152(s1)
    800001f6:	07f7f713          	andi	a4,a5,127
    800001fa:	9726                	add	a4,a4,s1
    800001fc:	01874703          	lbu	a4,24(a4)
    80000200:	00070c1b          	sext.w	s8,a4
    if(c == C('D')){  // end-of-file
    80000204:	079c0663          	beq	s8,s9,80000270 <consoleread+0x10c>
    cbuf = c;
    80000208:	f8e407a3          	sb	a4,-113(s0)
    if(either_copyout(user_dst, dst, &cbuf, 1) == -1)
    8000020c:	4685                	li	a3,1
    8000020e:	f8f40613          	addi	a2,s0,-113
    80000212:	85d6                	mv	a1,s5
    80000214:	855a                	mv	a0,s6
    80000216:	00002097          	auipc	ra,0x2
    8000021a:	7ec080e7          	jalr	2028(ra) # 80002a02 <either_copyout>
    8000021e:	01a50663          	beq	a0,s10,8000022a <consoleread+0xc6>
    dst++;
    80000222:	0a85                	addi	s5,s5,1
    --n;
    80000224:	3a7d                	addiw	s4,s4,-1
    if(c == '\n'){
    80000226:	f9bc17e3          	bne	s8,s11,800001b4 <consoleread+0x50>
      // a whole line has arrived, return to
      // the user-level read().
      break;
    }
  }
  release(&cons.lock);
    8000022a:	00011517          	auipc	a0,0x11
    8000022e:	b5650513          	addi	a0,a0,-1194 # 80010d80 <cons>
    80000232:	00001097          	auipc	ra,0x1
    80000236:	c2a080e7          	jalr	-982(ra) # 80000e5c <release>

  return target - n;
    8000023a:	414b853b          	subw	a0,s7,s4
    8000023e:	a811                	j	80000252 <consoleread+0xee>
        release(&cons.lock);
    80000240:	00011517          	auipc	a0,0x11
    80000244:	b4050513          	addi	a0,a0,-1216 # 80010d80 <cons>
    80000248:	00001097          	auipc	ra,0x1
    8000024c:	c14080e7          	jalr	-1004(ra) # 80000e5c <release>
        return -1;
    80000250:	557d                	li	a0,-1
}
    80000252:	70e6                	ld	ra,120(sp)
    80000254:	7446                	ld	s0,112(sp)
    80000256:	74a6                	ld	s1,104(sp)
    80000258:	7906                	ld	s2,96(sp)
    8000025a:	69e6                	ld	s3,88(sp)
    8000025c:	6a46                	ld	s4,80(sp)
    8000025e:	6aa6                	ld	s5,72(sp)
    80000260:	6b06                	ld	s6,64(sp)
    80000262:	7be2                	ld	s7,56(sp)
    80000264:	7c42                	ld	s8,48(sp)
    80000266:	7ca2                	ld	s9,40(sp)
    80000268:	7d02                	ld	s10,32(sp)
    8000026a:	6de2                	ld	s11,24(sp)
    8000026c:	6109                	addi	sp,sp,128
    8000026e:	8082                	ret
      if(n < target){
    80000270:	000a071b          	sext.w	a4,s4
    80000274:	fb777be3          	bgeu	a4,s7,8000022a <consoleread+0xc6>
        cons.r--;
    80000278:	00011717          	auipc	a4,0x11
    8000027c:	baf72023          	sw	a5,-1120(a4) # 80010e18 <cons+0x98>
    80000280:	b76d                	j	8000022a <consoleread+0xc6>

0000000080000282 <consputc>:
{
    80000282:	1141                	addi	sp,sp,-16
    80000284:	e406                	sd	ra,8(sp)
    80000286:	e022                	sd	s0,0(sp)
    80000288:	0800                	addi	s0,sp,16
  if(c == BACKSPACE){
    8000028a:	10000793          	li	a5,256
    8000028e:	00f50a63          	beq	a0,a5,800002a2 <consputc+0x20>
    uartputc_sync(c);
    80000292:	00000097          	auipc	ra,0x0
    80000296:	564080e7          	jalr	1380(ra) # 800007f6 <uartputc_sync>
}
    8000029a:	60a2                	ld	ra,8(sp)
    8000029c:	6402                	ld	s0,0(sp)
    8000029e:	0141                	addi	sp,sp,16
    800002a0:	8082                	ret
    uartputc_sync('\b'); uartputc_sync(' '); uartputc_sync('\b');
    800002a2:	4521                	li	a0,8
    800002a4:	00000097          	auipc	ra,0x0
    800002a8:	552080e7          	jalr	1362(ra) # 800007f6 <uartputc_sync>
    800002ac:	02000513          	li	a0,32
    800002b0:	00000097          	auipc	ra,0x0
    800002b4:	546080e7          	jalr	1350(ra) # 800007f6 <uartputc_sync>
    800002b8:	4521                	li	a0,8
    800002ba:	00000097          	auipc	ra,0x0
    800002be:	53c080e7          	jalr	1340(ra) # 800007f6 <uartputc_sync>
    800002c2:	bfe1                	j	8000029a <consputc+0x18>

00000000800002c4 <consoleintr>:
// do erase/kill processing, append to cons.buf,
// wake up consoleread() if a whole line has arrived.
//
void
consoleintr(int c)
{
    800002c4:	1101                	addi	sp,sp,-32
    800002c6:	ec06                	sd	ra,24(sp)
    800002c8:	e822                	sd	s0,16(sp)
    800002ca:	e426                	sd	s1,8(sp)
    800002cc:	e04a                	sd	s2,0(sp)
    800002ce:	1000                	addi	s0,sp,32
    800002d0:	84aa                	mv	s1,a0
  acquire(&cons.lock);
    800002d2:	00011517          	auipc	a0,0x11
    800002d6:	aae50513          	addi	a0,a0,-1362 # 80010d80 <cons>
    800002da:	00001097          	auipc	ra,0x1
    800002de:	ace080e7          	jalr	-1330(ra) # 80000da8 <acquire>

  switch(c){
    800002e2:	47d5                	li	a5,21
    800002e4:	0af48663          	beq	s1,a5,80000390 <consoleintr+0xcc>
    800002e8:	0297ca63          	blt	a5,s1,8000031c <consoleintr+0x58>
    800002ec:	47a1                	li	a5,8
    800002ee:	0ef48763          	beq	s1,a5,800003dc <consoleintr+0x118>
    800002f2:	47c1                	li	a5,16
    800002f4:	10f49a63          	bne	s1,a5,80000408 <consoleintr+0x144>
  case C('P'):  // Print process list.
    procdump();
    800002f8:	00002097          	auipc	ra,0x2
    800002fc:	7b6080e7          	jalr	1974(ra) # 80002aae <procdump>
      }
    }
    break;
  }
  
  release(&cons.lock);
    80000300:	00011517          	auipc	a0,0x11
    80000304:	a8050513          	addi	a0,a0,-1408 # 80010d80 <cons>
    80000308:	00001097          	auipc	ra,0x1
    8000030c:	b54080e7          	jalr	-1196(ra) # 80000e5c <release>
}
    80000310:	60e2                	ld	ra,24(sp)
    80000312:	6442                	ld	s0,16(sp)
    80000314:	64a2                	ld	s1,8(sp)
    80000316:	6902                	ld	s2,0(sp)
    80000318:	6105                	addi	sp,sp,32
    8000031a:	8082                	ret
  switch(c){
    8000031c:	07f00793          	li	a5,127
    80000320:	0af48e63          	beq	s1,a5,800003dc <consoleintr+0x118>
    if(c != 0 && cons.e-cons.r < INPUT_BUF_SIZE){
    80000324:	00011717          	auipc	a4,0x11
    80000328:	a5c70713          	addi	a4,a4,-1444 # 80010d80 <cons>
    8000032c:	0a072783          	lw	a5,160(a4)
    80000330:	09872703          	lw	a4,152(a4)
    80000334:	9f99                	subw	a5,a5,a4
    80000336:	07f00713          	li	a4,127
    8000033a:	fcf763e3          	bltu	a4,a5,80000300 <consoleintr+0x3c>
      c = (c == '\r') ? '\n' : c;
    8000033e:	47b5                	li	a5,13
    80000340:	0cf48763          	beq	s1,a5,8000040e <consoleintr+0x14a>
      consputc(c);
    80000344:	8526                	mv	a0,s1
    80000346:	00000097          	auipc	ra,0x0
    8000034a:	f3c080e7          	jalr	-196(ra) # 80000282 <consputc>
      cons.buf[cons.e++ % INPUT_BUF_SIZE] = c;
    8000034e:	00011797          	auipc	a5,0x11
    80000352:	a3278793          	addi	a5,a5,-1486 # 80010d80 <cons>
    80000356:	0a07a683          	lw	a3,160(a5)
    8000035a:	0016871b          	addiw	a4,a3,1
    8000035e:	0007061b          	sext.w	a2,a4
    80000362:	0ae7a023          	sw	a4,160(a5)
    80000366:	07f6f693          	andi	a3,a3,127
    8000036a:	97b6                	add	a5,a5,a3
    8000036c:	00978c23          	sb	s1,24(a5)
      if(c == '\n' || c == C('D') || cons.e-cons.r == INPUT_BUF_SIZE){
    80000370:	47a9                	li	a5,10
    80000372:	0cf48563          	beq	s1,a5,8000043c <consoleintr+0x178>
    80000376:	4791                	li	a5,4
    80000378:	0cf48263          	beq	s1,a5,8000043c <consoleintr+0x178>
    8000037c:	00011797          	auipc	a5,0x11
    80000380:	a9c7a783          	lw	a5,-1380(a5) # 80010e18 <cons+0x98>
    80000384:	9f1d                	subw	a4,a4,a5
    80000386:	08000793          	li	a5,128
    8000038a:	f6f71be3          	bne	a4,a5,80000300 <consoleintr+0x3c>
    8000038e:	a07d                	j	8000043c <consoleintr+0x178>
    while(cons.e != cons.w &&
    80000390:	00011717          	auipc	a4,0x11
    80000394:	9f070713          	addi	a4,a4,-1552 # 80010d80 <cons>
    80000398:	0a072783          	lw	a5,160(a4)
    8000039c:	09c72703          	lw	a4,156(a4)
          cons.buf[(cons.e-1) % INPUT_BUF_SIZE] != '\n'){
    800003a0:	00011497          	auipc	s1,0x11
    800003a4:	9e048493          	addi	s1,s1,-1568 # 80010d80 <cons>
    while(cons.e != cons.w &&
    800003a8:	4929                	li	s2,10
    800003aa:	f4f70be3          	beq	a4,a5,80000300 <consoleintr+0x3c>
          cons.buf[(cons.e-1) % INPUT_BUF_SIZE] != '\n'){
    800003ae:	37fd                	addiw	a5,a5,-1
    800003b0:	07f7f713          	andi	a4,a5,127
    800003b4:	9726                	add	a4,a4,s1
    while(cons.e != cons.w &&
    800003b6:	01874703          	lbu	a4,24(a4)
    800003ba:	f52703e3          	beq	a4,s2,80000300 <consoleintr+0x3c>
      cons.e--;
    800003be:	0af4a023          	sw	a5,160(s1)
      consputc(BACKSPACE);
    800003c2:	10000513          	li	a0,256
    800003c6:	00000097          	auipc	ra,0x0
    800003ca:	ebc080e7          	jalr	-324(ra) # 80000282 <consputc>
    while(cons.e != cons.w &&
    800003ce:	0a04a783          	lw	a5,160(s1)
    800003d2:	09c4a703          	lw	a4,156(s1)
    800003d6:	fcf71ce3          	bne	a4,a5,800003ae <consoleintr+0xea>
    800003da:	b71d                	j	80000300 <consoleintr+0x3c>
    if(cons.e != cons.w){
    800003dc:	00011717          	auipc	a4,0x11
    800003e0:	9a470713          	addi	a4,a4,-1628 # 80010d80 <cons>
    800003e4:	0a072783          	lw	a5,160(a4)
    800003e8:	09c72703          	lw	a4,156(a4)
    800003ec:	f0f70ae3          	beq	a4,a5,80000300 <consoleintr+0x3c>
      cons.e--;
    800003f0:	37fd                	addiw	a5,a5,-1
    800003f2:	00011717          	auipc	a4,0x11
    800003f6:	a2f72723          	sw	a5,-1490(a4) # 80010e20 <cons+0xa0>
      consputc(BACKSPACE);
    800003fa:	10000513          	li	a0,256
    800003fe:	00000097          	auipc	ra,0x0
    80000402:	e84080e7          	jalr	-380(ra) # 80000282 <consputc>
    80000406:	bded                	j	80000300 <consoleintr+0x3c>
    if(c != 0 && cons.e-cons.r < INPUT_BUF_SIZE){
    80000408:	ee048ce3          	beqz	s1,80000300 <consoleintr+0x3c>
    8000040c:	bf21                	j	80000324 <consoleintr+0x60>
      consputc(c);
    8000040e:	4529                	li	a0,10
    80000410:	00000097          	auipc	ra,0x0
    80000414:	e72080e7          	jalr	-398(ra) # 80000282 <consputc>
      cons.buf[cons.e++ % INPUT_BUF_SIZE] = c;
    80000418:	00011797          	auipc	a5,0x11
    8000041c:	96878793          	addi	a5,a5,-1688 # 80010d80 <cons>
    80000420:	0a07a703          	lw	a4,160(a5)
    80000424:	0017069b          	addiw	a3,a4,1
    80000428:	0006861b          	sext.w	a2,a3
    8000042c:	0ad7a023          	sw	a3,160(a5)
    80000430:	07f77713          	andi	a4,a4,127
    80000434:	97ba                	add	a5,a5,a4
    80000436:	4729                	li	a4,10
    80000438:	00e78c23          	sb	a4,24(a5)
        cons.w = cons.e;
    8000043c:	00011797          	auipc	a5,0x11
    80000440:	9ec7a023          	sw	a2,-1568(a5) # 80010e1c <cons+0x9c>
        wakeup(&cons.r);
    80000444:	00011517          	auipc	a0,0x11
    80000448:	9d450513          	addi	a0,a0,-1580 # 80010e18 <cons+0x98>
    8000044c:	00002097          	auipc	ra,0x2
    80000450:	2da080e7          	jalr	730(ra) # 80002726 <wakeup>
    80000454:	b575                	j	80000300 <consoleintr+0x3c>

0000000080000456 <consoleinit>:

void
consoleinit(void)
{
    80000456:	1141                	addi	sp,sp,-16
    80000458:	e406                	sd	ra,8(sp)
    8000045a:	e022                	sd	s0,0(sp)
    8000045c:	0800                	addi	s0,sp,16
  initlock(&cons.lock, "cons");
    8000045e:	00008597          	auipc	a1,0x8
    80000462:	bb258593          	addi	a1,a1,-1102 # 80008010 <etext+0x10>
    80000466:	00011517          	auipc	a0,0x11
    8000046a:	91a50513          	addi	a0,a0,-1766 # 80010d80 <cons>
    8000046e:	00001097          	auipc	ra,0x1
    80000472:	8aa080e7          	jalr	-1878(ra) # 80000d18 <initlock>

  uartinit();
    80000476:	00000097          	auipc	ra,0x0
    8000047a:	330080e7          	jalr	816(ra) # 800007a6 <uartinit>

  // connect read and write system calls
  // to consoleread and consolewrite.
  devsw[CONSOLE].read = consoleread;
    8000047e:	00683797          	auipc	a5,0x683
    80000482:	cb278793          	addi	a5,a5,-846 # 80683130 <devsw>
    80000486:	00000717          	auipc	a4,0x0
    8000048a:	cde70713          	addi	a4,a4,-802 # 80000164 <consoleread>
    8000048e:	eb98                	sd	a4,16(a5)
  devsw[CONSOLE].write = consolewrite;
    80000490:	00000717          	auipc	a4,0x0
    80000494:	c7270713          	addi	a4,a4,-910 # 80000102 <consolewrite>
    80000498:	ef98                	sd	a4,24(a5)
}
    8000049a:	60a2                	ld	ra,8(sp)
    8000049c:	6402                	ld	s0,0(sp)
    8000049e:	0141                	addi	sp,sp,16
    800004a0:	8082                	ret

00000000800004a2 <printint>:
    800004a2:	7179                	addi	sp,sp,-48
    800004a4:	f406                	sd	ra,40(sp)
    800004a6:	f022                	sd	s0,32(sp)
    800004a8:	ec26                	sd	s1,24(sp)
    800004aa:	e84a                	sd	s2,16(sp)
    800004ac:	1800                	addi	s0,sp,48
    800004ae:	c219                	beqz	a2,800004b4 <printint+0x12>
    800004b0:	08054663          	bltz	a0,8000053c <printint+0x9a>
    800004b4:	2501                	sext.w	a0,a0
    800004b6:	4881                	li	a7,0
    800004b8:	fd040693          	addi	a3,s0,-48
    800004bc:	4701                	li	a4,0
    800004be:	2581                	sext.w	a1,a1
    800004c0:	00008617          	auipc	a2,0x8
    800004c4:	b8060613          	addi	a2,a2,-1152 # 80008040 <digits>
    800004c8:	883a                	mv	a6,a4
    800004ca:	2705                	addiw	a4,a4,1
    800004cc:	02b577bb          	remuw	a5,a0,a1
    800004d0:	1782                	slli	a5,a5,0x20
    800004d2:	9381                	srli	a5,a5,0x20
    800004d4:	97b2                	add	a5,a5,a2
    800004d6:	0007c783          	lbu	a5,0(a5)
    800004da:	00f68023          	sb	a5,0(a3)
    800004de:	0005079b          	sext.w	a5,a0
    800004e2:	02b5553b          	divuw	a0,a0,a1
    800004e6:	0685                	addi	a3,a3,1
    800004e8:	feb7f0e3          	bgeu	a5,a1,800004c8 <printint+0x26>
    800004ec:	00088b63          	beqz	a7,80000502 <printint+0x60>
    800004f0:	fe040793          	addi	a5,s0,-32
    800004f4:	973e                	add	a4,a4,a5
    800004f6:	02d00793          	li	a5,45
    800004fa:	fef70823          	sb	a5,-16(a4)
    800004fe:	0028071b          	addiw	a4,a6,2
    80000502:	02e05763          	blez	a4,80000530 <printint+0x8e>
    80000506:	fd040793          	addi	a5,s0,-48
    8000050a:	00e784b3          	add	s1,a5,a4
    8000050e:	fff78913          	addi	s2,a5,-1
    80000512:	993a                	add	s2,s2,a4
    80000514:	377d                	addiw	a4,a4,-1
    80000516:	1702                	slli	a4,a4,0x20
    80000518:	9301                	srli	a4,a4,0x20
    8000051a:	40e90933          	sub	s2,s2,a4
    8000051e:	fff4c503          	lbu	a0,-1(s1)
    80000522:	00000097          	auipc	ra,0x0
    80000526:	d60080e7          	jalr	-672(ra) # 80000282 <consputc>
    8000052a:	14fd                	addi	s1,s1,-1
    8000052c:	ff2499e3          	bne	s1,s2,8000051e <printint+0x7c>
    80000530:	70a2                	ld	ra,40(sp)
    80000532:	7402                	ld	s0,32(sp)
    80000534:	64e2                	ld	s1,24(sp)
    80000536:	6942                	ld	s2,16(sp)
    80000538:	6145                	addi	sp,sp,48
    8000053a:	8082                	ret
    8000053c:	40a0053b          	negw	a0,a0
    80000540:	4885                	li	a7,1
    80000542:	bf9d                	j	800004b8 <printint+0x16>

0000000080000544 <panic>:
    80000544:	1101                	addi	sp,sp,-32
    80000546:	ec06                	sd	ra,24(sp)
    80000548:	e822                	sd	s0,16(sp)
    8000054a:	e426                	sd	s1,8(sp)
    8000054c:	1000                	addi	s0,sp,32
    8000054e:	84aa                	mv	s1,a0
    80000550:	00011797          	auipc	a5,0x11
    80000554:	8e07a823          	sw	zero,-1808(a5) # 80010e40 <pr+0x18>
    80000558:	00008517          	auipc	a0,0x8
    8000055c:	ac050513          	addi	a0,a0,-1344 # 80008018 <etext+0x18>
    80000560:	00000097          	auipc	ra,0x0
    80000564:	02e080e7          	jalr	46(ra) # 8000058e <printf>
    80000568:	8526                	mv	a0,s1
    8000056a:	00000097          	auipc	ra,0x0
    8000056e:	024080e7          	jalr	36(ra) # 8000058e <printf>
    80000572:	00008517          	auipc	a0,0x8
    80000576:	b8650513          	addi	a0,a0,-1146 # 800080f8 <digits+0xb8>
    8000057a:	00000097          	auipc	ra,0x0
    8000057e:	014080e7          	jalr	20(ra) # 8000058e <printf>
    80000582:	4785                	li	a5,1
    80000584:	00008717          	auipc	a4,0x8
    80000588:	66f72e23          	sw	a5,1660(a4) # 80008c00 <panicked>
    8000058c:	a001                	j	8000058c <panic+0x48>

000000008000058e <printf>:
    8000058e:	7131                	addi	sp,sp,-192
    80000590:	fc86                	sd	ra,120(sp)
    80000592:	f8a2                	sd	s0,112(sp)
    80000594:	f4a6                	sd	s1,104(sp)
    80000596:	f0ca                	sd	s2,96(sp)
    80000598:	ecce                	sd	s3,88(sp)
    8000059a:	e8d2                	sd	s4,80(sp)
    8000059c:	e4d6                	sd	s5,72(sp)
    8000059e:	e0da                	sd	s6,64(sp)
    800005a0:	fc5e                	sd	s7,56(sp)
    800005a2:	f862                	sd	s8,48(sp)
    800005a4:	f466                	sd	s9,40(sp)
    800005a6:	f06a                	sd	s10,32(sp)
    800005a8:	ec6e                	sd	s11,24(sp)
    800005aa:	0100                	addi	s0,sp,128
    800005ac:	8a2a                	mv	s4,a0
    800005ae:	e40c                	sd	a1,8(s0)
    800005b0:	e810                	sd	a2,16(s0)
    800005b2:	ec14                	sd	a3,24(s0)
    800005b4:	f018                	sd	a4,32(s0)
    800005b6:	f41c                	sd	a5,40(s0)
    800005b8:	03043823          	sd	a6,48(s0)
    800005bc:	03143c23          	sd	a7,56(s0)
    800005c0:	00011d97          	auipc	s11,0x11
    800005c4:	880dad83          	lw	s11,-1920(s11) # 80010e40 <pr+0x18>
    800005c8:	020d9b63          	bnez	s11,800005fe <printf+0x70>
    800005cc:	040a0263          	beqz	s4,80000610 <printf+0x82>
    800005d0:	00840793          	addi	a5,s0,8
    800005d4:	f8f43423          	sd	a5,-120(s0)
    800005d8:	000a4503          	lbu	a0,0(s4)
    800005dc:	16050263          	beqz	a0,80000740 <printf+0x1b2>
    800005e0:	4481                	li	s1,0
    800005e2:	02500a93          	li	s5,37
    800005e6:	07000b13          	li	s6,112
    800005ea:	4d41                	li	s10,16
    800005ec:	00008b97          	auipc	s7,0x8
    800005f0:	a54b8b93          	addi	s7,s7,-1452 # 80008040 <digits>
    800005f4:	07300c93          	li	s9,115
    800005f8:	06400c13          	li	s8,100
    800005fc:	a82d                	j	80000636 <printf+0xa8>
    800005fe:	00011517          	auipc	a0,0x11
    80000602:	82a50513          	addi	a0,a0,-2006 # 80010e28 <pr>
    80000606:	00000097          	auipc	ra,0x0
    8000060a:	7a2080e7          	jalr	1954(ra) # 80000da8 <acquire>
    8000060e:	bf7d                	j	800005cc <printf+0x3e>
    80000610:	00008517          	auipc	a0,0x8
    80000614:	a1850513          	addi	a0,a0,-1512 # 80008028 <etext+0x28>
    80000618:	00000097          	auipc	ra,0x0
    8000061c:	f2c080e7          	jalr	-212(ra) # 80000544 <panic>
    80000620:	00000097          	auipc	ra,0x0
    80000624:	c62080e7          	jalr	-926(ra) # 80000282 <consputc>
    80000628:	2485                	addiw	s1,s1,1
    8000062a:	009a07b3          	add	a5,s4,s1
    8000062e:	0007c503          	lbu	a0,0(a5)
    80000632:	10050763          	beqz	a0,80000740 <printf+0x1b2>
    80000636:	ff5515e3          	bne	a0,s5,80000620 <printf+0x92>
    8000063a:	2485                	addiw	s1,s1,1
    8000063c:	009a07b3          	add	a5,s4,s1
    80000640:	0007c783          	lbu	a5,0(a5)
    80000644:	0007891b          	sext.w	s2,a5
    80000648:	cfe5                	beqz	a5,80000740 <printf+0x1b2>
    8000064a:	05678a63          	beq	a5,s6,8000069e <printf+0x110>
    8000064e:	02fb7663          	bgeu	s6,a5,8000067a <printf+0xec>
    80000652:	09978963          	beq	a5,s9,800006e4 <printf+0x156>
    80000656:	07800713          	li	a4,120
    8000065a:	0ce79863          	bne	a5,a4,8000072a <printf+0x19c>
    8000065e:	f8843783          	ld	a5,-120(s0)
    80000662:	00878713          	addi	a4,a5,8
    80000666:	f8e43423          	sd	a4,-120(s0)
    8000066a:	4605                	li	a2,1
    8000066c:	85ea                	mv	a1,s10
    8000066e:	4388                	lw	a0,0(a5)
    80000670:	00000097          	auipc	ra,0x0
    80000674:	e32080e7          	jalr	-462(ra) # 800004a2 <printint>
    80000678:	bf45                	j	80000628 <printf+0x9a>
    8000067a:	0b578263          	beq	a5,s5,8000071e <printf+0x190>
    8000067e:	0b879663          	bne	a5,s8,8000072a <printf+0x19c>
    80000682:	f8843783          	ld	a5,-120(s0)
    80000686:	00878713          	addi	a4,a5,8
    8000068a:	f8e43423          	sd	a4,-120(s0)
    8000068e:	4605                	li	a2,1
    80000690:	45a9                	li	a1,10
    80000692:	4388                	lw	a0,0(a5)
    80000694:	00000097          	auipc	ra,0x0
    80000698:	e0e080e7          	jalr	-498(ra) # 800004a2 <printint>
    8000069c:	b771                	j	80000628 <printf+0x9a>
    8000069e:	f8843783          	ld	a5,-120(s0)
    800006a2:	00878713          	addi	a4,a5,8
    800006a6:	f8e43423          	sd	a4,-120(s0)
    800006aa:	0007b983          	ld	s3,0(a5)
    800006ae:	03000513          	li	a0,48
    800006b2:	00000097          	auipc	ra,0x0
    800006b6:	bd0080e7          	jalr	-1072(ra) # 80000282 <consputc>
    800006ba:	07800513          	li	a0,120
    800006be:	00000097          	auipc	ra,0x0
    800006c2:	bc4080e7          	jalr	-1084(ra) # 80000282 <consputc>
    800006c6:	896a                	mv	s2,s10
    800006c8:	03c9d793          	srli	a5,s3,0x3c
    800006cc:	97de                	add	a5,a5,s7
    800006ce:	0007c503          	lbu	a0,0(a5)
    800006d2:	00000097          	auipc	ra,0x0
    800006d6:	bb0080e7          	jalr	-1104(ra) # 80000282 <consputc>
    800006da:	0992                	slli	s3,s3,0x4
    800006dc:	397d                	addiw	s2,s2,-1
    800006de:	fe0915e3          	bnez	s2,800006c8 <printf+0x13a>
    800006e2:	b799                	j	80000628 <printf+0x9a>
    800006e4:	f8843783          	ld	a5,-120(s0)
    800006e8:	00878713          	addi	a4,a5,8
    800006ec:	f8e43423          	sd	a4,-120(s0)
    800006f0:	0007b903          	ld	s2,0(a5)
    800006f4:	00090e63          	beqz	s2,80000710 <printf+0x182>
    800006f8:	00094503          	lbu	a0,0(s2)
    800006fc:	d515                	beqz	a0,80000628 <printf+0x9a>
    800006fe:	00000097          	auipc	ra,0x0
    80000702:	b84080e7          	jalr	-1148(ra) # 80000282 <consputc>
    80000706:	0905                	addi	s2,s2,1
    80000708:	00094503          	lbu	a0,0(s2)
    8000070c:	f96d                	bnez	a0,800006fe <printf+0x170>
    8000070e:	bf29                	j	80000628 <printf+0x9a>
    80000710:	00008917          	auipc	s2,0x8
    80000714:	91090913          	addi	s2,s2,-1776 # 80008020 <etext+0x20>
    80000718:	02800513          	li	a0,40
    8000071c:	b7cd                	j	800006fe <printf+0x170>
    8000071e:	8556                	mv	a0,s5
    80000720:	00000097          	auipc	ra,0x0
    80000724:	b62080e7          	jalr	-1182(ra) # 80000282 <consputc>
    80000728:	b701                	j	80000628 <printf+0x9a>
    8000072a:	8556                	mv	a0,s5
    8000072c:	00000097          	auipc	ra,0x0
    80000730:	b56080e7          	jalr	-1194(ra) # 80000282 <consputc>
    80000734:	854a                	mv	a0,s2
    80000736:	00000097          	auipc	ra,0x0
    8000073a:	b4c080e7          	jalr	-1204(ra) # 80000282 <consputc>
    8000073e:	b5ed                	j	80000628 <printf+0x9a>
    80000740:	020d9163          	bnez	s11,80000762 <printf+0x1d4>
    80000744:	70e6                	ld	ra,120(sp)
    80000746:	7446                	ld	s0,112(sp)
    80000748:	74a6                	ld	s1,104(sp)
    8000074a:	7906                	ld	s2,96(sp)
    8000074c:	69e6                	ld	s3,88(sp)
    8000074e:	6a46                	ld	s4,80(sp)
    80000750:	6aa6                	ld	s5,72(sp)
    80000752:	6b06                	ld	s6,64(sp)
    80000754:	7be2                	ld	s7,56(sp)
    80000756:	7c42                	ld	s8,48(sp)
    80000758:	7ca2                	ld	s9,40(sp)
    8000075a:	7d02                	ld	s10,32(sp)
    8000075c:	6de2                	ld	s11,24(sp)
    8000075e:	6129                	addi	sp,sp,192
    80000760:	8082                	ret
    80000762:	00010517          	auipc	a0,0x10
    80000766:	6c650513          	addi	a0,a0,1734 # 80010e28 <pr>
    8000076a:	00000097          	auipc	ra,0x0
    8000076e:	6f2080e7          	jalr	1778(ra) # 80000e5c <release>
    80000772:	bfc9                	j	80000744 <printf+0x1b6>

0000000080000774 <printfinit>:
    80000774:	1101                	addi	sp,sp,-32
    80000776:	ec06                	sd	ra,24(sp)
    80000778:	e822                	sd	s0,16(sp)
    8000077a:	e426                	sd	s1,8(sp)
    8000077c:	1000                	addi	s0,sp,32
    8000077e:	00010497          	auipc	s1,0x10
    80000782:	6aa48493          	addi	s1,s1,1706 # 80010e28 <pr>
    80000786:	00008597          	auipc	a1,0x8
    8000078a:	8b258593          	addi	a1,a1,-1870 # 80008038 <etext+0x38>
    8000078e:	8526                	mv	a0,s1
    80000790:	00000097          	auipc	ra,0x0
    80000794:	588080e7          	jalr	1416(ra) # 80000d18 <initlock>
    80000798:	4785                	li	a5,1
    8000079a:	cc9c                	sw	a5,24(s1)
    8000079c:	60e2                	ld	ra,24(sp)
    8000079e:	6442                	ld	s0,16(sp)
    800007a0:	64a2                	ld	s1,8(sp)
    800007a2:	6105                	addi	sp,sp,32
    800007a4:	8082                	ret

00000000800007a6 <uartinit>:
    800007a6:	1141                	addi	sp,sp,-16
    800007a8:	e406                	sd	ra,8(sp)
    800007aa:	e022                	sd	s0,0(sp)
    800007ac:	0800                	addi	s0,sp,16
    800007ae:	100007b7          	lui	a5,0x10000
    800007b2:	000780a3          	sb	zero,1(a5) # 10000001 <_entry-0x6fffffff>
    800007b6:	f8000713          	li	a4,-128
    800007ba:	00e781a3          	sb	a4,3(a5)
    800007be:	470d                	li	a4,3
    800007c0:	00e78023          	sb	a4,0(a5)
    800007c4:	000780a3          	sb	zero,1(a5)
    800007c8:	00e781a3          	sb	a4,3(a5)
    800007cc:	469d                	li	a3,7
    800007ce:	00d78123          	sb	a3,2(a5)
    800007d2:	00e780a3          	sb	a4,1(a5)
    800007d6:	00008597          	auipc	a1,0x8
    800007da:	88258593          	addi	a1,a1,-1918 # 80008058 <digits+0x18>
    800007de:	00010517          	auipc	a0,0x10
    800007e2:	66a50513          	addi	a0,a0,1642 # 80010e48 <uart_tx_lock>
    800007e6:	00000097          	auipc	ra,0x0
    800007ea:	532080e7          	jalr	1330(ra) # 80000d18 <initlock>
    800007ee:	60a2                	ld	ra,8(sp)
    800007f0:	6402                	ld	s0,0(sp)
    800007f2:	0141                	addi	sp,sp,16
    800007f4:	8082                	ret

00000000800007f6 <uartputc_sync>:
    800007f6:	1101                	addi	sp,sp,-32
    800007f8:	ec06                	sd	ra,24(sp)
    800007fa:	e822                	sd	s0,16(sp)
    800007fc:	e426                	sd	s1,8(sp)
    800007fe:	1000                	addi	s0,sp,32
    80000800:	84aa                	mv	s1,a0
    80000802:	00000097          	auipc	ra,0x0
    80000806:	55a080e7          	jalr	1370(ra) # 80000d5c <push_off>
    8000080a:	00008797          	auipc	a5,0x8
    8000080e:	3f67a783          	lw	a5,1014(a5) # 80008c00 <panicked>
    80000812:	10000737          	lui	a4,0x10000
    80000816:	c391                	beqz	a5,8000081a <uartputc_sync+0x24>
    80000818:	a001                	j	80000818 <uartputc_sync+0x22>
    8000081a:	00574783          	lbu	a5,5(a4) # 10000005 <_entry-0x6ffffffb>
    8000081e:	0ff7f793          	andi	a5,a5,255
    80000822:	0207f793          	andi	a5,a5,32
    80000826:	dbf5                	beqz	a5,8000081a <uartputc_sync+0x24>
    80000828:	0ff4f793          	andi	a5,s1,255
    8000082c:	10000737          	lui	a4,0x10000
    80000830:	00f70023          	sb	a5,0(a4) # 10000000 <_entry-0x70000000>
    80000834:	00000097          	auipc	ra,0x0
    80000838:	5c8080e7          	jalr	1480(ra) # 80000dfc <pop_off>
    8000083c:	60e2                	ld	ra,24(sp)
    8000083e:	6442                	ld	s0,16(sp)
    80000840:	64a2                	ld	s1,8(sp)
    80000842:	6105                	addi	sp,sp,32
    80000844:	8082                	ret

0000000080000846 <uartstart>:
    80000846:	00008717          	auipc	a4,0x8
    8000084a:	3c273703          	ld	a4,962(a4) # 80008c08 <uart_tx_r>
    8000084e:	00008797          	auipc	a5,0x8
    80000852:	3c27b783          	ld	a5,962(a5) # 80008c10 <uart_tx_w>
    80000856:	06e78c63          	beq	a5,a4,800008ce <uartstart+0x88>
    8000085a:	7139                	addi	sp,sp,-64
    8000085c:	fc06                	sd	ra,56(sp)
    8000085e:	f822                	sd	s0,48(sp)
    80000860:	f426                	sd	s1,40(sp)
    80000862:	f04a                	sd	s2,32(sp)
    80000864:	ec4e                	sd	s3,24(sp)
    80000866:	e852                	sd	s4,16(sp)
    80000868:	e456                	sd	s5,8(sp)
    8000086a:	0080                	addi	s0,sp,64
    8000086c:	10000937          	lui	s2,0x10000
    80000870:	00010a17          	auipc	s4,0x10
    80000874:	5d8a0a13          	addi	s4,s4,1496 # 80010e48 <uart_tx_lock>
    80000878:	00008497          	auipc	s1,0x8
    8000087c:	39048493          	addi	s1,s1,912 # 80008c08 <uart_tx_r>
    80000880:	00008997          	auipc	s3,0x8
    80000884:	39098993          	addi	s3,s3,912 # 80008c10 <uart_tx_w>
    80000888:	00594783          	lbu	a5,5(s2) # 10000005 <_entry-0x6ffffffb>
    8000088c:	0ff7f793          	andi	a5,a5,255
    80000890:	0207f793          	andi	a5,a5,32
    80000894:	c785                	beqz	a5,800008bc <uartstart+0x76>
    80000896:	01f77793          	andi	a5,a4,31
    8000089a:	97d2                	add	a5,a5,s4
    8000089c:	0187ca83          	lbu	s5,24(a5)
    800008a0:	0705                	addi	a4,a4,1
    800008a2:	e098                	sd	a4,0(s1)
    800008a4:	8526                	mv	a0,s1
    800008a6:	00002097          	auipc	ra,0x2
    800008aa:	e80080e7          	jalr	-384(ra) # 80002726 <wakeup>
    800008ae:	01590023          	sb	s5,0(s2)
    800008b2:	6098                	ld	a4,0(s1)
    800008b4:	0009b783          	ld	a5,0(s3)
    800008b8:	fce798e3          	bne	a5,a4,80000888 <uartstart+0x42>
    800008bc:	70e2                	ld	ra,56(sp)
    800008be:	7442                	ld	s0,48(sp)
    800008c0:	74a2                	ld	s1,40(sp)
    800008c2:	7902                	ld	s2,32(sp)
    800008c4:	69e2                	ld	s3,24(sp)
    800008c6:	6a42                	ld	s4,16(sp)
    800008c8:	6aa2                	ld	s5,8(sp)
    800008ca:	6121                	addi	sp,sp,64
    800008cc:	8082                	ret
    800008ce:	8082                	ret

00000000800008d0 <uartputc>:
    800008d0:	7179                	addi	sp,sp,-48
    800008d2:	f406                	sd	ra,40(sp)
    800008d4:	f022                	sd	s0,32(sp)
    800008d6:	ec26                	sd	s1,24(sp)
    800008d8:	e84a                	sd	s2,16(sp)
    800008da:	e44e                	sd	s3,8(sp)
    800008dc:	e052                	sd	s4,0(sp)
    800008de:	1800                	addi	s0,sp,48
    800008e0:	89aa                	mv	s3,a0
    800008e2:	00010517          	auipc	a0,0x10
    800008e6:	56650513          	addi	a0,a0,1382 # 80010e48 <uart_tx_lock>
    800008ea:	00000097          	auipc	ra,0x0
    800008ee:	4be080e7          	jalr	1214(ra) # 80000da8 <acquire>
    800008f2:	00008797          	auipc	a5,0x8
    800008f6:	30e7a783          	lw	a5,782(a5) # 80008c00 <panicked>
    800008fa:	e7c9                	bnez	a5,80000984 <uartputc+0xb4>
    800008fc:	00008797          	auipc	a5,0x8
    80000900:	3147b783          	ld	a5,788(a5) # 80008c10 <uart_tx_w>
    80000904:	00008717          	auipc	a4,0x8
    80000908:	30473703          	ld	a4,772(a4) # 80008c08 <uart_tx_r>
    8000090c:	02070713          	addi	a4,a4,32
    80000910:	00010a17          	auipc	s4,0x10
    80000914:	538a0a13          	addi	s4,s4,1336 # 80010e48 <uart_tx_lock>
    80000918:	00008497          	auipc	s1,0x8
    8000091c:	2f048493          	addi	s1,s1,752 # 80008c08 <uart_tx_r>
    80000920:	00008917          	auipc	s2,0x8
    80000924:	2f090913          	addi	s2,s2,752 # 80008c10 <uart_tx_w>
    80000928:	00f71f63          	bne	a4,a5,80000946 <uartputc+0x76>
    8000092c:	85d2                	mv	a1,s4
    8000092e:	8526                	mv	a0,s1
    80000930:	00002097          	auipc	ra,0x2
    80000934:	af8080e7          	jalr	-1288(ra) # 80002428 <sleep>
    80000938:	00093783          	ld	a5,0(s2)
    8000093c:	6098                	ld	a4,0(s1)
    8000093e:	02070713          	addi	a4,a4,32
    80000942:	fef705e3          	beq	a4,a5,8000092c <uartputc+0x5c>
    80000946:	00010497          	auipc	s1,0x10
    8000094a:	50248493          	addi	s1,s1,1282 # 80010e48 <uart_tx_lock>
    8000094e:	01f7f713          	andi	a4,a5,31
    80000952:	9726                	add	a4,a4,s1
    80000954:	01370c23          	sb	s3,24(a4)
    80000958:	0785                	addi	a5,a5,1
    8000095a:	00008717          	auipc	a4,0x8
    8000095e:	2af73b23          	sd	a5,694(a4) # 80008c10 <uart_tx_w>
    80000962:	00000097          	auipc	ra,0x0
    80000966:	ee4080e7          	jalr	-284(ra) # 80000846 <uartstart>
    8000096a:	8526                	mv	a0,s1
    8000096c:	00000097          	auipc	ra,0x0
    80000970:	4f0080e7          	jalr	1264(ra) # 80000e5c <release>
    80000974:	70a2                	ld	ra,40(sp)
    80000976:	7402                	ld	s0,32(sp)
    80000978:	64e2                	ld	s1,24(sp)
    8000097a:	6942                	ld	s2,16(sp)
    8000097c:	69a2                	ld	s3,8(sp)
    8000097e:	6a02                	ld	s4,0(sp)
    80000980:	6145                	addi	sp,sp,48
    80000982:	8082                	ret
    80000984:	a001                	j	80000984 <uartputc+0xb4>

0000000080000986 <uartgetc>:
    80000986:	1141                	addi	sp,sp,-16
    80000988:	e422                	sd	s0,8(sp)
    8000098a:	0800                	addi	s0,sp,16
    8000098c:	100007b7          	lui	a5,0x10000
    80000990:	0057c783          	lbu	a5,5(a5) # 10000005 <_entry-0x6ffffffb>
    80000994:	8b85                	andi	a5,a5,1
    80000996:	cb91                	beqz	a5,800009aa <uartgetc+0x24>
    80000998:	100007b7          	lui	a5,0x10000
    8000099c:	0007c503          	lbu	a0,0(a5) # 10000000 <_entry-0x70000000>
    800009a0:	0ff57513          	andi	a0,a0,255
    800009a4:	6422                	ld	s0,8(sp)
    800009a6:	0141                	addi	sp,sp,16
    800009a8:	8082                	ret
    800009aa:	557d                	li	a0,-1
    800009ac:	bfe5                	j	800009a4 <uartgetc+0x1e>

00000000800009ae <uartintr>:
    800009ae:	1101                	addi	sp,sp,-32
    800009b0:	ec06                	sd	ra,24(sp)
    800009b2:	e822                	sd	s0,16(sp)
    800009b4:	e426                	sd	s1,8(sp)
    800009b6:	1000                	addi	s0,sp,32
    800009b8:	54fd                	li	s1,-1
    800009ba:	00000097          	auipc	ra,0x0
    800009be:	fcc080e7          	jalr	-52(ra) # 80000986 <uartgetc>
    800009c2:	00950763          	beq	a0,s1,800009d0 <uartintr+0x22>
    800009c6:	00000097          	auipc	ra,0x0
    800009ca:	8fe080e7          	jalr	-1794(ra) # 800002c4 <consoleintr>
    800009ce:	b7f5                	j	800009ba <uartintr+0xc>
    800009d0:	00010497          	auipc	s1,0x10
    800009d4:	47848493          	addi	s1,s1,1144 # 80010e48 <uart_tx_lock>
    800009d8:	8526                	mv	a0,s1
    800009da:	00000097          	auipc	ra,0x0
    800009de:	3ce080e7          	jalr	974(ra) # 80000da8 <acquire>
    800009e2:	00000097          	auipc	ra,0x0
    800009e6:	e64080e7          	jalr	-412(ra) # 80000846 <uartstart>
    800009ea:	8526                	mv	a0,s1
    800009ec:	00000097          	auipc	ra,0x0
    800009f0:	470080e7          	jalr	1136(ra) # 80000e5c <release>
    800009f4:	60e2                	ld	ra,24(sp)
    800009f6:	6442                	ld	s0,16(sp)
    800009f8:	64a2                	ld	s1,8(sp)
    800009fa:	6105                	addi	sp,sp,32
    800009fc:	8082                	ret

00000000800009fe <krefincr>:
	struct spinlock lock;
	int count[(PHYSTOP / PGSIZE)*3];
} refcnt;

void krefincr(void *pa)
{
    800009fe:	1101                	addi	sp,sp,-32
    80000a00:	ec06                	sd	ra,24(sp)
    80000a02:	e822                	sd	s0,16(sp)
    80000a04:	e426                	sd	s1,8(sp)
    80000a06:	1000                	addi	s0,sp,32
    80000a08:	84aa                	mv	s1,a0
	// acquire(&refcnt.lock);
	// int pn = (uint64)pa / PGSIZE;
	// refcnt.count[pn]++;
	// release(&refcnt.lock);
	acquire(&kmem.lock);
    80000a0a:	00010517          	auipc	a0,0x10
    80000a0e:	47650513          	addi	a0,a0,1142 # 80010e80 <kmem>
    80000a12:	00000097          	auipc	ra,0x0
    80000a16:	396080e7          	jalr	918(ra) # 80000da8 <acquire>
	int pn = (uint64)pa / PGSIZE;
	if ((uint64)pa > PHYSTOP)
    80000a1a:	4745                	li	a4,17
    80000a1c:	076e                	slli	a4,a4,0x1b
    80000a1e:	02976c63          	bltu	a4,s1,80000a56 <krefincr+0x58>
    80000a22:	00c4d793          	srli	a5,s1,0xc
    80000a26:	2781                	sext.w	a5,a5
		panic("Physical Address limit exceeded");
	}
	// if ((uint64)pa > PHYSTOP || refcnt.count[pn] < 1)
	// 	panic("krefincr");

	refcnt.count[pn]++;
    80000a28:	0791                	addi	a5,a5,4
    80000a2a:	078a                	slli	a5,a5,0x2
    80000a2c:	00010717          	auipc	a4,0x10
    80000a30:	47470713          	addi	a4,a4,1140 # 80010ea0 <refcnt>
    80000a34:	97ba                	add	a5,a5,a4
    80000a36:	4798                	lw	a4,8(a5)
    80000a38:	2705                	addiw	a4,a4,1
    80000a3a:	c798                	sw	a4,8(a5)
	release(&kmem.lock);
    80000a3c:	00010517          	auipc	a0,0x10
    80000a40:	44450513          	addi	a0,a0,1092 # 80010e80 <kmem>
    80000a44:	00000097          	auipc	ra,0x0
    80000a48:	418080e7          	jalr	1048(ra) # 80000e5c <release>
}
    80000a4c:	60e2                	ld	ra,24(sp)
    80000a4e:	6442                	ld	s0,16(sp)
    80000a50:	64a2                	ld	s1,8(sp)
    80000a52:	6105                	addi	sp,sp,32
    80000a54:	8082                	ret
		panic("Physical Address limit exceeded");
    80000a56:	00007517          	auipc	a0,0x7
    80000a5a:	60a50513          	addi	a0,a0,1546 # 80008060 <digits+0x20>
    80000a5e:	00000097          	auipc	ra,0x0
    80000a62:	ae6080e7          	jalr	-1306(ra) # 80000544 <panic>

0000000080000a66 <krefdecr>:

void krefdecr(void *pa)
{
    80000a66:	1101                	addi	sp,sp,-32
    80000a68:	ec06                	sd	ra,24(sp)
    80000a6a:	e822                	sd	s0,16(sp)
    80000a6c:	e426                	sd	s1,8(sp)
    80000a6e:	1000                	addi	s0,sp,32
    80000a70:	84aa                	mv	s1,a0
	// acquire(&refcnt.lock);
	// int pn = (uint64)pa / PGSIZE;
	// refcnt.count[pn]--;
	// release(&refcnt.lock);
	// printf("here\n");
	acquire(&kmem.lock);
    80000a72:	00010517          	auipc	a0,0x10
    80000a76:	40e50513          	addi	a0,a0,1038 # 80010e80 <kmem>
    80000a7a:	00000097          	auipc	ra,0x0
    80000a7e:	32e080e7          	jalr	814(ra) # 80000da8 <acquire>
	// printf("here1\n");
	int pn = (uint64)pa / PGSIZE;
	if ((uint64)pa > PHYSTOP)
    80000a82:	4745                	li	a4,17
    80000a84:	076e                	slli	a4,a4,0x1b
    80000a86:	02976c63          	bltu	a4,s1,80000abe <krefdecr+0x58>
    80000a8a:	00c4d793          	srli	a5,s1,0xc
    80000a8e:	2781                	sext.w	a5,a5
	{
		panic("Physical Address limit exceeded");
	}

	refcnt.count[pn]--;
    80000a90:	0791                	addi	a5,a5,4
    80000a92:	078a                	slli	a5,a5,0x2
    80000a94:	00010717          	auipc	a4,0x10
    80000a98:	40c70713          	addi	a4,a4,1036 # 80010ea0 <refcnt>
    80000a9c:	97ba                	add	a5,a5,a4
    80000a9e:	4798                	lw	a4,8(a5)
    80000aa0:	377d                	addiw	a4,a4,-1
    80000aa2:	c798                	sw	a4,8(a5)
	release(&kmem.lock);
    80000aa4:	00010517          	auipc	a0,0x10
    80000aa8:	3dc50513          	addi	a0,a0,988 # 80010e80 <kmem>
    80000aac:	00000097          	auipc	ra,0x0
    80000ab0:	3b0080e7          	jalr	944(ra) # 80000e5c <release>
}
    80000ab4:	60e2                	ld	ra,24(sp)
    80000ab6:	6442                	ld	s0,16(sp)
    80000ab8:	64a2                	ld	s1,8(sp)
    80000aba:	6105                	addi	sp,sp,32
    80000abc:	8082                	ret
		panic("Physical Address limit exceeded");
    80000abe:	00007517          	auipc	a0,0x7
    80000ac2:	5a250513          	addi	a0,a0,1442 # 80008060 <digits+0x20>
    80000ac6:	00000097          	auipc	ra,0x0
    80000aca:	a7e080e7          	jalr	-1410(ra) # 80000544 <panic>

0000000080000ace <kfree>:
// Free the page of physical memory pointed at by pa,
// which normally should have been returned by a
// call to kalloc().  (The exception is when
// initializing the allocator; see kinit above.)
void kfree(void *pa)
{
    80000ace:	1101                	addi	sp,sp,-32
    80000ad0:	ec06                	sd	ra,24(sp)
    80000ad2:	e822                	sd	s0,16(sp)
    80000ad4:	e426                	sd	s1,8(sp)
    80000ad6:	e04a                	sd	s2,0(sp)
    80000ad8:	1000                	addi	s0,sp,32
	struct run *r;

	if (((uint64)pa % PGSIZE) != 0 || (char *)pa < end || (uint64)pa >= PHYSTOP)
    80000ada:	03451793          	slli	a5,a0,0x34
    80000ade:	e7cd                	bnez	a5,80000b88 <kfree+0xba>
    80000ae0:	84aa                	mv	s1,a0
    80000ae2:	00683797          	auipc	a5,0x683
    80000ae6:	7e678793          	addi	a5,a5,2022 # 806842c8 <end>
    80000aea:	08f56f63          	bltu	a0,a5,80000b88 <kfree+0xba>
    80000aee:	47c5                	li	a5,17
    80000af0:	07ee                	slli	a5,a5,0x1b
    80000af2:	08f57b63          	bgeu	a0,a5,80000b88 <kfree+0xba>
		panic("kfree");

	r = (struct run *)pa;

	acquire(&kmem.lock);
    80000af6:	00010517          	auipc	a0,0x10
    80000afa:	38a50513          	addi	a0,a0,906 # 80010e80 <kmem>
    80000afe:	00000097          	auipc	ra,0x0
    80000b02:	2aa080e7          	jalr	682(ra) # 80000da8 <acquire>
	int pn = (uint64)r / PGSIZE;
    80000b06:	00c4d793          	srli	a5,s1,0xc
    80000b0a:	2781                	sext.w	a5,a5
	if (refcnt.count[pn] < 1)
    80000b0c:	00478713          	addi	a4,a5,4
    80000b10:	00271693          	slli	a3,a4,0x2
    80000b14:	00010717          	auipc	a4,0x10
    80000b18:	38c70713          	addi	a4,a4,908 # 80010ea0 <refcnt>
    80000b1c:	9736                	add	a4,a4,a3
    80000b1e:	4718                	lw	a4,8(a4)
    80000b20:	06e05c63          	blez	a4,80000b98 <kfree+0xca>
	{
		release(&kmem.lock);
		panic("kfree_decr");
	}

	refcnt.count[pn] -= 1;
    80000b24:	377d                	addiw	a4,a4,-1
    80000b26:	0007061b          	sext.w	a2,a4
    80000b2a:	0791                	addi	a5,a5,4
    80000b2c:	078a                	slli	a5,a5,0x2
    80000b2e:	00010697          	auipc	a3,0x10
    80000b32:	37268693          	addi	a3,a3,882 # 80010ea0 <refcnt>
    80000b36:	97b6                	add	a5,a5,a3
    80000b38:	c798                	sw	a4,8(a5)
	if (refcnt.count[pn] > 0)
    80000b3a:	06c04f63          	bgtz	a2,80000bb8 <kfree+0xea>
	{
		release(&kmem.lock);
		return;
	}
	release(&kmem.lock);
    80000b3e:	00010917          	auipc	s2,0x10
    80000b42:	34290913          	addi	s2,s2,834 # 80010e80 <kmem>
    80000b46:	854a                	mv	a0,s2
    80000b48:	00000097          	auipc	ra,0x0
    80000b4c:	314080e7          	jalr	788(ra) # 80000e5c <release>

	// Fill with junk to catch dangling refs.
	memset(pa, 1, PGSIZE);
    80000b50:	6605                	lui	a2,0x1
    80000b52:	4585                	li	a1,1
    80000b54:	8526                	mv	a0,s1
    80000b56:	00000097          	auipc	ra,0x0
    80000b5a:	34e080e7          	jalr	846(ra) # 80000ea4 <memset>

	acquire(&kmem.lock);
    80000b5e:	854a                	mv	a0,s2
    80000b60:	00000097          	auipc	ra,0x0
    80000b64:	248080e7          	jalr	584(ra) # 80000da8 <acquire>
	r->next = kmem.freelist;
    80000b68:	01893783          	ld	a5,24(s2)
    80000b6c:	e09c                	sd	a5,0(s1)
	kmem.freelist = r;
    80000b6e:	00993c23          	sd	s1,24(s2)
	release(&kmem.lock);
    80000b72:	854a                	mv	a0,s2
    80000b74:	00000097          	auipc	ra,0x0
    80000b78:	2e8080e7          	jalr	744(ra) # 80000e5c <release>
}
    80000b7c:	60e2                	ld	ra,24(sp)
    80000b7e:	6442                	ld	s0,16(sp)
    80000b80:	64a2                	ld	s1,8(sp)
    80000b82:	6902                	ld	s2,0(sp)
    80000b84:	6105                	addi	sp,sp,32
    80000b86:	8082                	ret
		panic("kfree");
    80000b88:	00007517          	auipc	a0,0x7
    80000b8c:	4f850513          	addi	a0,a0,1272 # 80008080 <digits+0x40>
    80000b90:	00000097          	auipc	ra,0x0
    80000b94:	9b4080e7          	jalr	-1612(ra) # 80000544 <panic>
		release(&kmem.lock);
    80000b98:	00010517          	auipc	a0,0x10
    80000b9c:	2e850513          	addi	a0,a0,744 # 80010e80 <kmem>
    80000ba0:	00000097          	auipc	ra,0x0
    80000ba4:	2bc080e7          	jalr	700(ra) # 80000e5c <release>
		panic("kfree_decr");
    80000ba8:	00007517          	auipc	a0,0x7
    80000bac:	4e050513          	addi	a0,a0,1248 # 80008088 <digits+0x48>
    80000bb0:	00000097          	auipc	ra,0x0
    80000bb4:	994080e7          	jalr	-1644(ra) # 80000544 <panic>
		release(&kmem.lock);
    80000bb8:	00010517          	auipc	a0,0x10
    80000bbc:	2c850513          	addi	a0,a0,712 # 80010e80 <kmem>
    80000bc0:	00000097          	auipc	ra,0x0
    80000bc4:	29c080e7          	jalr	668(ra) # 80000e5c <release>
		return;
    80000bc8:	bf55                	j	80000b7c <kfree+0xae>

0000000080000bca <freerange>:
{
    80000bca:	7139                	addi	sp,sp,-64
    80000bcc:	fc06                	sd	ra,56(sp)
    80000bce:	f822                	sd	s0,48(sp)
    80000bd0:	f426                	sd	s1,40(sp)
    80000bd2:	f04a                	sd	s2,32(sp)
    80000bd4:	ec4e                	sd	s3,24(sp)
    80000bd6:	e852                	sd	s4,16(sp)
    80000bd8:	e456                	sd	s5,8(sp)
    80000bda:	e05a                	sd	s6,0(sp)
    80000bdc:	0080                	addi	s0,sp,64
	p = (char *)PGROUNDUP((uint64)pa_start);
    80000bde:	6785                	lui	a5,0x1
    80000be0:	fff78493          	addi	s1,a5,-1 # fff <_entry-0x7ffff001>
    80000be4:	9526                	add	a0,a0,s1
    80000be6:	74fd                	lui	s1,0xfffff
    80000be8:	8ce9                	and	s1,s1,a0
	for (; p + PGSIZE <= (char *)pa_end; p += PGSIZE)
    80000bea:	97a6                	add	a5,a5,s1
    80000bec:	02f5ec63          	bltu	a1,a5,80000c24 <freerange+0x5a>
    80000bf0:	892e                	mv	s2,a1
		refcnt.count[pn] = 1;
    80000bf2:	00010b17          	auipc	s6,0x10
    80000bf6:	2aeb0b13          	addi	s6,s6,686 # 80010ea0 <refcnt>
    80000bfa:	4a85                	li	s5,1
    80000bfc:	6a05                	lui	s4,0x1
	for (; p + PGSIZE <= (char *)pa_end; p += PGSIZE)
    80000bfe:	6989                	lui	s3,0x2
		pn = (uint64)p / PGSIZE;
    80000c00:	00c4d793          	srli	a5,s1,0xc
		refcnt.count[pn] = 1;
    80000c04:	2781                	sext.w	a5,a5
    80000c06:	0791                	addi	a5,a5,4
    80000c08:	078a                	slli	a5,a5,0x2
    80000c0a:	97da                	add	a5,a5,s6
    80000c0c:	0157a423          	sw	s5,8(a5)
		kfree(p);
    80000c10:	8526                	mv	a0,s1
    80000c12:	00000097          	auipc	ra,0x0
    80000c16:	ebc080e7          	jalr	-324(ra) # 80000ace <kfree>
	for (; p + PGSIZE <= (char *)pa_end; p += PGSIZE)
    80000c1a:	87a6                	mv	a5,s1
    80000c1c:	94d2                	add	s1,s1,s4
    80000c1e:	97ce                	add	a5,a5,s3
    80000c20:	fef970e3          	bgeu	s2,a5,80000c00 <freerange+0x36>
}
    80000c24:	70e2                	ld	ra,56(sp)
    80000c26:	7442                	ld	s0,48(sp)
    80000c28:	74a2                	ld	s1,40(sp)
    80000c2a:	7902                	ld	s2,32(sp)
    80000c2c:	69e2                	ld	s3,24(sp)
    80000c2e:	6a42                	ld	s4,16(sp)
    80000c30:	6aa2                	ld	s5,8(sp)
    80000c32:	6b02                	ld	s6,0(sp)
    80000c34:	6121                	addi	sp,sp,64
    80000c36:	8082                	ret

0000000080000c38 <kinit>:
{
    80000c38:	1141                	addi	sp,sp,-16
    80000c3a:	e406                	sd	ra,8(sp)
    80000c3c:	e022                	sd	s0,0(sp)
    80000c3e:	0800                	addi	s0,sp,16
	initlock(&kmem.lock, "kmem");
    80000c40:	00007597          	auipc	a1,0x7
    80000c44:	45858593          	addi	a1,a1,1112 # 80008098 <digits+0x58>
    80000c48:	00010517          	auipc	a0,0x10
    80000c4c:	23850513          	addi	a0,a0,568 # 80010e80 <kmem>
    80000c50:	00000097          	auipc	ra,0x0
    80000c54:	0c8080e7          	jalr	200(ra) # 80000d18 <initlock>
	freerange(end, (void *)PHYSTOP);
    80000c58:	45c5                	li	a1,17
    80000c5a:	05ee                	slli	a1,a1,0x1b
    80000c5c:	00683517          	auipc	a0,0x683
    80000c60:	66c50513          	addi	a0,a0,1644 # 806842c8 <end>
    80000c64:	00000097          	auipc	ra,0x0
    80000c68:	f66080e7          	jalr	-154(ra) # 80000bca <freerange>
}
    80000c6c:	60a2                	ld	ra,8(sp)
    80000c6e:	6402                	ld	s0,0(sp)
    80000c70:	0141                	addi	sp,sp,16
    80000c72:	8082                	ret

0000000080000c74 <kalloc>:
// Allocate one 4096-byte page of physical memory.
// Returns a pointer that the kernel can use.
// Returns 0 if the memory cannot be allocated.
void *
kalloc(void)
{
    80000c74:	1101                	addi	sp,sp,-32
    80000c76:	ec06                	sd	ra,24(sp)
    80000c78:	e822                	sd	s0,16(sp)
    80000c7a:	e426                	sd	s1,8(sp)
    80000c7c:	1000                	addi	s0,sp,32
	struct run *r;

	acquire(&kmem.lock);
    80000c7e:	00010497          	auipc	s1,0x10
    80000c82:	20248493          	addi	s1,s1,514 # 80010e80 <kmem>
    80000c86:	8526                	mv	a0,s1
    80000c88:	00000097          	auipc	ra,0x0
    80000c8c:	120080e7          	jalr	288(ra) # 80000da8 <acquire>
	r = kmem.freelist;
    80000c90:	6c84                	ld	s1,24(s1)
	if (r)
    80000c92:	c8b5                	beqz	s1,80000d06 <kalloc+0x92>
	{
		int pn = (uint64)r / PGSIZE;
    80000c94:	00c4d793          	srli	a5,s1,0xc
    80000c98:	2781                	sext.w	a5,a5
		if (refcnt.count[pn] > 0)
    80000c9a:	00478713          	addi	a4,a5,4
    80000c9e:	00271693          	slli	a3,a4,0x2
    80000ca2:	00010717          	auipc	a4,0x10
    80000ca6:	1fe70713          	addi	a4,a4,510 # 80010ea0 <refcnt>
    80000caa:	9736                	add	a4,a4,a3
    80000cac:	4718                	lw	a4,8(a4)
    80000cae:	04e04263          	bgtz	a4,80000cf2 <kalloc+0x7e>
		{
			release(&kmem.lock);
			return 0;
			// panic("refcnt kalloc");
		}
		refcnt.count[pn] = 1;
    80000cb2:	0791                	addi	a5,a5,4
    80000cb4:	078a                	slli	a5,a5,0x2
    80000cb6:	00010717          	auipc	a4,0x10
    80000cba:	1ea70713          	addi	a4,a4,490 # 80010ea0 <refcnt>
    80000cbe:	97ba                	add	a5,a5,a4
    80000cc0:	4705                	li	a4,1
    80000cc2:	c798                	sw	a4,8(a5)
		kmem.freelist = r->next;
    80000cc4:	609c                	ld	a5,0(s1)
    80000cc6:	00010517          	auipc	a0,0x10
    80000cca:	1ba50513          	addi	a0,a0,442 # 80010e80 <kmem>
    80000cce:	ed1c                	sd	a5,24(a0)
	}
	release(&kmem.lock);
    80000cd0:	00000097          	auipc	ra,0x0
    80000cd4:	18c080e7          	jalr	396(ra) # 80000e5c <release>

	if (r)
	{
		memset((char *)r, 5, PGSIZE); // fill with junk
    80000cd8:	6605                	lui	a2,0x1
    80000cda:	4595                	li	a1,5
    80000cdc:	8526                	mv	a0,s1
    80000cde:	00000097          	auipc	ra,0x0
    80000ce2:	1c6080e7          	jalr	454(ra) # 80000ea4 <memset>
	}
	return (void *)r;
}
    80000ce6:	8526                	mv	a0,s1
    80000ce8:	60e2                	ld	ra,24(sp)
    80000cea:	6442                	ld	s0,16(sp)
    80000cec:	64a2                	ld	s1,8(sp)
    80000cee:	6105                	addi	sp,sp,32
    80000cf0:	8082                	ret
			release(&kmem.lock);
    80000cf2:	00010517          	auipc	a0,0x10
    80000cf6:	18e50513          	addi	a0,a0,398 # 80010e80 <kmem>
    80000cfa:	00000097          	auipc	ra,0x0
    80000cfe:	162080e7          	jalr	354(ra) # 80000e5c <release>
			return 0;
    80000d02:	4481                	li	s1,0
    80000d04:	b7cd                	j	80000ce6 <kalloc+0x72>
	release(&kmem.lock);
    80000d06:	00010517          	auipc	a0,0x10
    80000d0a:	17a50513          	addi	a0,a0,378 # 80010e80 <kmem>
    80000d0e:	00000097          	auipc	ra,0x0
    80000d12:	14e080e7          	jalr	334(ra) # 80000e5c <release>
	if (r)
    80000d16:	bfc1                	j	80000ce6 <kalloc+0x72>

0000000080000d18 <initlock>:
    80000d18:	1141                	addi	sp,sp,-16
    80000d1a:	e422                	sd	s0,8(sp)
    80000d1c:	0800                	addi	s0,sp,16
    80000d1e:	e50c                	sd	a1,8(a0)
    80000d20:	00052023          	sw	zero,0(a0)
    80000d24:	00053823          	sd	zero,16(a0)
    80000d28:	6422                	ld	s0,8(sp)
    80000d2a:	0141                	addi	sp,sp,16
    80000d2c:	8082                	ret

0000000080000d2e <holding>:
    80000d2e:	411c                	lw	a5,0(a0)
    80000d30:	e399                	bnez	a5,80000d36 <holding+0x8>
    80000d32:	4501                	li	a0,0
    80000d34:	8082                	ret
    80000d36:	1101                	addi	sp,sp,-32
    80000d38:	ec06                	sd	ra,24(sp)
    80000d3a:	e822                	sd	s0,16(sp)
    80000d3c:	e426                	sd	s1,8(sp)
    80000d3e:	1000                	addi	s0,sp,32
    80000d40:	6904                	ld	s1,16(a0)
    80000d42:	00001097          	auipc	ra,0x1
    80000d46:	f5a080e7          	jalr	-166(ra) # 80001c9c <mycpu>
    80000d4a:	40a48533          	sub	a0,s1,a0
    80000d4e:	00153513          	seqz	a0,a0
    80000d52:	60e2                	ld	ra,24(sp)
    80000d54:	6442                	ld	s0,16(sp)
    80000d56:	64a2                	ld	s1,8(sp)
    80000d58:	6105                	addi	sp,sp,32
    80000d5a:	8082                	ret

0000000080000d5c <push_off>:
    80000d5c:	1101                	addi	sp,sp,-32
    80000d5e:	ec06                	sd	ra,24(sp)
    80000d60:	e822                	sd	s0,16(sp)
    80000d62:	e426                	sd	s1,8(sp)
    80000d64:	1000                	addi	s0,sp,32
    80000d66:	100024f3          	csrr	s1,sstatus
    80000d6a:	100027f3          	csrr	a5,sstatus
    80000d6e:	9bf5                	andi	a5,a5,-3
    80000d70:	10079073          	csrw	sstatus,a5
    80000d74:	00001097          	auipc	ra,0x1
    80000d78:	f28080e7          	jalr	-216(ra) # 80001c9c <mycpu>
    80000d7c:	5d3c                	lw	a5,120(a0)
    80000d7e:	cf89                	beqz	a5,80000d98 <push_off+0x3c>
    80000d80:	00001097          	auipc	ra,0x1
    80000d84:	f1c080e7          	jalr	-228(ra) # 80001c9c <mycpu>
    80000d88:	5d3c                	lw	a5,120(a0)
    80000d8a:	2785                	addiw	a5,a5,1
    80000d8c:	dd3c                	sw	a5,120(a0)
    80000d8e:	60e2                	ld	ra,24(sp)
    80000d90:	6442                	ld	s0,16(sp)
    80000d92:	64a2                	ld	s1,8(sp)
    80000d94:	6105                	addi	sp,sp,32
    80000d96:	8082                	ret
    80000d98:	00001097          	auipc	ra,0x1
    80000d9c:	f04080e7          	jalr	-252(ra) # 80001c9c <mycpu>
    80000da0:	8085                	srli	s1,s1,0x1
    80000da2:	8885                	andi	s1,s1,1
    80000da4:	dd64                	sw	s1,124(a0)
    80000da6:	bfe9                	j	80000d80 <push_off+0x24>

0000000080000da8 <acquire>:
    80000da8:	1101                	addi	sp,sp,-32
    80000daa:	ec06                	sd	ra,24(sp)
    80000dac:	e822                	sd	s0,16(sp)
    80000dae:	e426                	sd	s1,8(sp)
    80000db0:	1000                	addi	s0,sp,32
    80000db2:	84aa                	mv	s1,a0
    80000db4:	00000097          	auipc	ra,0x0
    80000db8:	fa8080e7          	jalr	-88(ra) # 80000d5c <push_off>
    80000dbc:	8526                	mv	a0,s1
    80000dbe:	00000097          	auipc	ra,0x0
    80000dc2:	f70080e7          	jalr	-144(ra) # 80000d2e <holding>
    80000dc6:	4705                	li	a4,1
    80000dc8:	e115                	bnez	a0,80000dec <acquire+0x44>
    80000dca:	87ba                	mv	a5,a4
    80000dcc:	0cf4a7af          	amoswap.w.aq	a5,a5,(s1)
    80000dd0:	2781                	sext.w	a5,a5
    80000dd2:	ffe5                	bnez	a5,80000dca <acquire+0x22>
    80000dd4:	0ff0000f          	fence
    80000dd8:	00001097          	auipc	ra,0x1
    80000ddc:	ec4080e7          	jalr	-316(ra) # 80001c9c <mycpu>
    80000de0:	e888                	sd	a0,16(s1)
    80000de2:	60e2                	ld	ra,24(sp)
    80000de4:	6442                	ld	s0,16(sp)
    80000de6:	64a2                	ld	s1,8(sp)
    80000de8:	6105                	addi	sp,sp,32
    80000dea:	8082                	ret
    80000dec:	00007517          	auipc	a0,0x7
    80000df0:	2b450513          	addi	a0,a0,692 # 800080a0 <digits+0x60>
    80000df4:	fffff097          	auipc	ra,0xfffff
    80000df8:	750080e7          	jalr	1872(ra) # 80000544 <panic>

0000000080000dfc <pop_off>:
    80000dfc:	1141                	addi	sp,sp,-16
    80000dfe:	e406                	sd	ra,8(sp)
    80000e00:	e022                	sd	s0,0(sp)
    80000e02:	0800                	addi	s0,sp,16
    80000e04:	00001097          	auipc	ra,0x1
    80000e08:	e98080e7          	jalr	-360(ra) # 80001c9c <mycpu>
    80000e0c:	100027f3          	csrr	a5,sstatus
    80000e10:	8b89                	andi	a5,a5,2
    80000e12:	e78d                	bnez	a5,80000e3c <pop_off+0x40>
    80000e14:	5d3c                	lw	a5,120(a0)
    80000e16:	02f05b63          	blez	a5,80000e4c <pop_off+0x50>
    80000e1a:	37fd                	addiw	a5,a5,-1
    80000e1c:	0007871b          	sext.w	a4,a5
    80000e20:	dd3c                	sw	a5,120(a0)
    80000e22:	eb09                	bnez	a4,80000e34 <pop_off+0x38>
    80000e24:	5d7c                	lw	a5,124(a0)
    80000e26:	c799                	beqz	a5,80000e34 <pop_off+0x38>
    80000e28:	100027f3          	csrr	a5,sstatus
    80000e2c:	0027e793          	ori	a5,a5,2
    80000e30:	10079073          	csrw	sstatus,a5
    80000e34:	60a2                	ld	ra,8(sp)
    80000e36:	6402                	ld	s0,0(sp)
    80000e38:	0141                	addi	sp,sp,16
    80000e3a:	8082                	ret
    80000e3c:	00007517          	auipc	a0,0x7
    80000e40:	26c50513          	addi	a0,a0,620 # 800080a8 <digits+0x68>
    80000e44:	fffff097          	auipc	ra,0xfffff
    80000e48:	700080e7          	jalr	1792(ra) # 80000544 <panic>
    80000e4c:	00007517          	auipc	a0,0x7
    80000e50:	27450513          	addi	a0,a0,628 # 800080c0 <digits+0x80>
    80000e54:	fffff097          	auipc	ra,0xfffff
    80000e58:	6f0080e7          	jalr	1776(ra) # 80000544 <panic>

0000000080000e5c <release>:
    80000e5c:	1101                	addi	sp,sp,-32
    80000e5e:	ec06                	sd	ra,24(sp)
    80000e60:	e822                	sd	s0,16(sp)
    80000e62:	e426                	sd	s1,8(sp)
    80000e64:	1000                	addi	s0,sp,32
    80000e66:	84aa                	mv	s1,a0
    80000e68:	00000097          	auipc	ra,0x0
    80000e6c:	ec6080e7          	jalr	-314(ra) # 80000d2e <holding>
    80000e70:	c115                	beqz	a0,80000e94 <release+0x38>
    80000e72:	0004b823          	sd	zero,16(s1)
    80000e76:	0ff0000f          	fence
    80000e7a:	0f50000f          	fence	iorw,ow
    80000e7e:	0804a02f          	amoswap.w	zero,zero,(s1)
    80000e82:	00000097          	auipc	ra,0x0
    80000e86:	f7a080e7          	jalr	-134(ra) # 80000dfc <pop_off>
    80000e8a:	60e2                	ld	ra,24(sp)
    80000e8c:	6442                	ld	s0,16(sp)
    80000e8e:	64a2                	ld	s1,8(sp)
    80000e90:	6105                	addi	sp,sp,32
    80000e92:	8082                	ret
    80000e94:	00007517          	auipc	a0,0x7
    80000e98:	23450513          	addi	a0,a0,564 # 800080c8 <digits+0x88>
    80000e9c:	fffff097          	auipc	ra,0xfffff
    80000ea0:	6a8080e7          	jalr	1704(ra) # 80000544 <panic>

0000000080000ea4 <memset>:
    80000ea4:	1141                	addi	sp,sp,-16
    80000ea6:	e422                	sd	s0,8(sp)
    80000ea8:	0800                	addi	s0,sp,16
    80000eaa:	ce09                	beqz	a2,80000ec4 <memset+0x20>
    80000eac:	87aa                	mv	a5,a0
    80000eae:	fff6071b          	addiw	a4,a2,-1
    80000eb2:	1702                	slli	a4,a4,0x20
    80000eb4:	9301                	srli	a4,a4,0x20
    80000eb6:	0705                	addi	a4,a4,1
    80000eb8:	972a                	add	a4,a4,a0
    80000eba:	00b78023          	sb	a1,0(a5)
    80000ebe:	0785                	addi	a5,a5,1
    80000ec0:	fee79de3          	bne	a5,a4,80000eba <memset+0x16>
    80000ec4:	6422                	ld	s0,8(sp)
    80000ec6:	0141                	addi	sp,sp,16
    80000ec8:	8082                	ret

0000000080000eca <memcmp>:
    80000eca:	1141                	addi	sp,sp,-16
    80000ecc:	e422                	sd	s0,8(sp)
    80000ece:	0800                	addi	s0,sp,16
    80000ed0:	ca05                	beqz	a2,80000f00 <memcmp+0x36>
    80000ed2:	fff6069b          	addiw	a3,a2,-1
    80000ed6:	1682                	slli	a3,a3,0x20
    80000ed8:	9281                	srli	a3,a3,0x20
    80000eda:	0685                	addi	a3,a3,1
    80000edc:	96aa                	add	a3,a3,a0
    80000ede:	00054783          	lbu	a5,0(a0)
    80000ee2:	0005c703          	lbu	a4,0(a1)
    80000ee6:	00e79863          	bne	a5,a4,80000ef6 <memcmp+0x2c>
    80000eea:	0505                	addi	a0,a0,1
    80000eec:	0585                	addi	a1,a1,1
    80000eee:	fed518e3          	bne	a0,a3,80000ede <memcmp+0x14>
    80000ef2:	4501                	li	a0,0
    80000ef4:	a019                	j	80000efa <memcmp+0x30>
    80000ef6:	40e7853b          	subw	a0,a5,a4
    80000efa:	6422                	ld	s0,8(sp)
    80000efc:	0141                	addi	sp,sp,16
    80000efe:	8082                	ret
    80000f00:	4501                	li	a0,0
    80000f02:	bfe5                	j	80000efa <memcmp+0x30>

0000000080000f04 <memmove>:
    80000f04:	1141                	addi	sp,sp,-16
    80000f06:	e422                	sd	s0,8(sp)
    80000f08:	0800                	addi	s0,sp,16
    80000f0a:	ca0d                	beqz	a2,80000f3c <memmove+0x38>
    80000f0c:	00a5f963          	bgeu	a1,a0,80000f1e <memmove+0x1a>
    80000f10:	02061693          	slli	a3,a2,0x20
    80000f14:	9281                	srli	a3,a3,0x20
    80000f16:	00d58733          	add	a4,a1,a3
    80000f1a:	02e56463          	bltu	a0,a4,80000f42 <memmove+0x3e>
    80000f1e:	fff6079b          	addiw	a5,a2,-1
    80000f22:	1782                	slli	a5,a5,0x20
    80000f24:	9381                	srli	a5,a5,0x20
    80000f26:	0785                	addi	a5,a5,1
    80000f28:	97ae                	add	a5,a5,a1
    80000f2a:	872a                	mv	a4,a0
    80000f2c:	0585                	addi	a1,a1,1
    80000f2e:	0705                	addi	a4,a4,1
    80000f30:	fff5c683          	lbu	a3,-1(a1)
    80000f34:	fed70fa3          	sb	a3,-1(a4)
    80000f38:	fef59ae3          	bne	a1,a5,80000f2c <memmove+0x28>
    80000f3c:	6422                	ld	s0,8(sp)
    80000f3e:	0141                	addi	sp,sp,16
    80000f40:	8082                	ret
    80000f42:	96aa                	add	a3,a3,a0
    80000f44:	fff6079b          	addiw	a5,a2,-1
    80000f48:	1782                	slli	a5,a5,0x20
    80000f4a:	9381                	srli	a5,a5,0x20
    80000f4c:	fff7c793          	not	a5,a5
    80000f50:	97ba                	add	a5,a5,a4
    80000f52:	177d                	addi	a4,a4,-1
    80000f54:	16fd                	addi	a3,a3,-1
    80000f56:	00074603          	lbu	a2,0(a4)
    80000f5a:	00c68023          	sb	a2,0(a3)
    80000f5e:	fef71ae3          	bne	a4,a5,80000f52 <memmove+0x4e>
    80000f62:	bfe9                	j	80000f3c <memmove+0x38>

0000000080000f64 <memcpy>:
    80000f64:	1141                	addi	sp,sp,-16
    80000f66:	e406                	sd	ra,8(sp)
    80000f68:	e022                	sd	s0,0(sp)
    80000f6a:	0800                	addi	s0,sp,16
    80000f6c:	00000097          	auipc	ra,0x0
    80000f70:	f98080e7          	jalr	-104(ra) # 80000f04 <memmove>
    80000f74:	60a2                	ld	ra,8(sp)
    80000f76:	6402                	ld	s0,0(sp)
    80000f78:	0141                	addi	sp,sp,16
    80000f7a:	8082                	ret

0000000080000f7c <strncmp>:
    80000f7c:	1141                	addi	sp,sp,-16
    80000f7e:	e422                	sd	s0,8(sp)
    80000f80:	0800                	addi	s0,sp,16
    80000f82:	ce11                	beqz	a2,80000f9e <strncmp+0x22>
    80000f84:	00054783          	lbu	a5,0(a0)
    80000f88:	cf89                	beqz	a5,80000fa2 <strncmp+0x26>
    80000f8a:	0005c703          	lbu	a4,0(a1)
    80000f8e:	00f71a63          	bne	a4,a5,80000fa2 <strncmp+0x26>
    80000f92:	367d                	addiw	a2,a2,-1
    80000f94:	0505                	addi	a0,a0,1
    80000f96:	0585                	addi	a1,a1,1
    80000f98:	f675                	bnez	a2,80000f84 <strncmp+0x8>
    80000f9a:	4501                	li	a0,0
    80000f9c:	a809                	j	80000fae <strncmp+0x32>
    80000f9e:	4501                	li	a0,0
    80000fa0:	a039                	j	80000fae <strncmp+0x32>
    80000fa2:	ca09                	beqz	a2,80000fb4 <strncmp+0x38>
    80000fa4:	00054503          	lbu	a0,0(a0)
    80000fa8:	0005c783          	lbu	a5,0(a1)
    80000fac:	9d1d                	subw	a0,a0,a5
    80000fae:	6422                	ld	s0,8(sp)
    80000fb0:	0141                	addi	sp,sp,16
    80000fb2:	8082                	ret
    80000fb4:	4501                	li	a0,0
    80000fb6:	bfe5                	j	80000fae <strncmp+0x32>

0000000080000fb8 <strncpy>:
    80000fb8:	1141                	addi	sp,sp,-16
    80000fba:	e422                	sd	s0,8(sp)
    80000fbc:	0800                	addi	s0,sp,16
    80000fbe:	872a                	mv	a4,a0
    80000fc0:	8832                	mv	a6,a2
    80000fc2:	367d                	addiw	a2,a2,-1
    80000fc4:	01005963          	blez	a6,80000fd6 <strncpy+0x1e>
    80000fc8:	0705                	addi	a4,a4,1
    80000fca:	0005c783          	lbu	a5,0(a1)
    80000fce:	fef70fa3          	sb	a5,-1(a4)
    80000fd2:	0585                	addi	a1,a1,1
    80000fd4:	f7f5                	bnez	a5,80000fc0 <strncpy+0x8>
    80000fd6:	00c05d63          	blez	a2,80000ff0 <strncpy+0x38>
    80000fda:	86ba                	mv	a3,a4
    80000fdc:	0685                	addi	a3,a3,1
    80000fde:	fe068fa3          	sb	zero,-1(a3)
    80000fe2:	fff6c793          	not	a5,a3
    80000fe6:	9fb9                	addw	a5,a5,a4
    80000fe8:	010787bb          	addw	a5,a5,a6
    80000fec:	fef048e3          	bgtz	a5,80000fdc <strncpy+0x24>
    80000ff0:	6422                	ld	s0,8(sp)
    80000ff2:	0141                	addi	sp,sp,16
    80000ff4:	8082                	ret

0000000080000ff6 <safestrcpy>:
    80000ff6:	1141                	addi	sp,sp,-16
    80000ff8:	e422                	sd	s0,8(sp)
    80000ffa:	0800                	addi	s0,sp,16
    80000ffc:	02c05363          	blez	a2,80001022 <safestrcpy+0x2c>
    80001000:	fff6069b          	addiw	a3,a2,-1
    80001004:	1682                	slli	a3,a3,0x20
    80001006:	9281                	srli	a3,a3,0x20
    80001008:	96ae                	add	a3,a3,a1
    8000100a:	87aa                	mv	a5,a0
    8000100c:	00d58963          	beq	a1,a3,8000101e <safestrcpy+0x28>
    80001010:	0585                	addi	a1,a1,1
    80001012:	0785                	addi	a5,a5,1
    80001014:	fff5c703          	lbu	a4,-1(a1)
    80001018:	fee78fa3          	sb	a4,-1(a5)
    8000101c:	fb65                	bnez	a4,8000100c <safestrcpy+0x16>
    8000101e:	00078023          	sb	zero,0(a5)
    80001022:	6422                	ld	s0,8(sp)
    80001024:	0141                	addi	sp,sp,16
    80001026:	8082                	ret

0000000080001028 <strlen>:
    80001028:	1141                	addi	sp,sp,-16
    8000102a:	e422                	sd	s0,8(sp)
    8000102c:	0800                	addi	s0,sp,16
    8000102e:	00054783          	lbu	a5,0(a0)
    80001032:	cf91                	beqz	a5,8000104e <strlen+0x26>
    80001034:	0505                	addi	a0,a0,1
    80001036:	87aa                	mv	a5,a0
    80001038:	4685                	li	a3,1
    8000103a:	9e89                	subw	a3,a3,a0
    8000103c:	00f6853b          	addw	a0,a3,a5
    80001040:	0785                	addi	a5,a5,1
    80001042:	fff7c703          	lbu	a4,-1(a5)
    80001046:	fb7d                	bnez	a4,8000103c <strlen+0x14>
    80001048:	6422                	ld	s0,8(sp)
    8000104a:	0141                	addi	sp,sp,16
    8000104c:	8082                	ret
    8000104e:	4501                	li	a0,0
    80001050:	bfe5                	j	80001048 <strlen+0x20>

0000000080001052 <main>:
    80001052:	1141                	addi	sp,sp,-16
    80001054:	e406                	sd	ra,8(sp)
    80001056:	e022                	sd	s0,0(sp)
    80001058:	0800                	addi	s0,sp,16
    8000105a:	00001097          	auipc	ra,0x1
    8000105e:	c32080e7          	jalr	-974(ra) # 80001c8c <cpuid>
    80001062:	00008717          	auipc	a4,0x8
    80001066:	bb670713          	addi	a4,a4,-1098 # 80008c18 <started>
    8000106a:	c139                	beqz	a0,800010b0 <main+0x5e>
    8000106c:	431c                	lw	a5,0(a4)
    8000106e:	2781                	sext.w	a5,a5
    80001070:	dff5                	beqz	a5,8000106c <main+0x1a>
    80001072:	0ff0000f          	fence
    80001076:	00001097          	auipc	ra,0x1
    8000107a:	c16080e7          	jalr	-1002(ra) # 80001c8c <cpuid>
    8000107e:	85aa                	mv	a1,a0
    80001080:	00007517          	auipc	a0,0x7
    80001084:	06850513          	addi	a0,a0,104 # 800080e8 <digits+0xa8>
    80001088:	fffff097          	auipc	ra,0xfffff
    8000108c:	506080e7          	jalr	1286(ra) # 8000058e <printf>
    80001090:	00000097          	auipc	ra,0x0
    80001094:	0d8080e7          	jalr	216(ra) # 80001168 <kvminithart>
    80001098:	00002097          	auipc	ra,0x2
    8000109c:	b5a080e7          	jalr	-1190(ra) # 80002bf2 <trapinithart>
    800010a0:	00005097          	auipc	ra,0x5
    800010a4:	540080e7          	jalr	1344(ra) # 800065e0 <plicinithart>
    800010a8:	00001097          	auipc	ra,0x1
    800010ac:	1bc080e7          	jalr	444(ra) # 80002264 <scheduler>
    800010b0:	fffff097          	auipc	ra,0xfffff
    800010b4:	3a6080e7          	jalr	934(ra) # 80000456 <consoleinit>
    800010b8:	fffff097          	auipc	ra,0xfffff
    800010bc:	6bc080e7          	jalr	1724(ra) # 80000774 <printfinit>
    800010c0:	00007517          	auipc	a0,0x7
    800010c4:	03850513          	addi	a0,a0,56 # 800080f8 <digits+0xb8>
    800010c8:	fffff097          	auipc	ra,0xfffff
    800010cc:	4c6080e7          	jalr	1222(ra) # 8000058e <printf>
    800010d0:	00007517          	auipc	a0,0x7
    800010d4:	00050513          	mv	a0,a0
    800010d8:	fffff097          	auipc	ra,0xfffff
    800010dc:	4b6080e7          	jalr	1206(ra) # 8000058e <printf>
    800010e0:	00007517          	auipc	a0,0x7
    800010e4:	01850513          	addi	a0,a0,24 # 800080f8 <digits+0xb8>
    800010e8:	fffff097          	auipc	ra,0xfffff
    800010ec:	4a6080e7          	jalr	1190(ra) # 8000058e <printf>
    800010f0:	00000097          	auipc	ra,0x0
    800010f4:	b48080e7          	jalr	-1208(ra) # 80000c38 <kinit>
    800010f8:	00000097          	auipc	ra,0x0
    800010fc:	326080e7          	jalr	806(ra) # 8000141e <kvminit>
    80001100:	00000097          	auipc	ra,0x0
    80001104:	068080e7          	jalr	104(ra) # 80001168 <kvminithart>
    80001108:	00001097          	auipc	ra,0x1
    8000110c:	ace080e7          	jalr	-1330(ra) # 80001bd6 <procinit>
    80001110:	00002097          	auipc	ra,0x2
    80001114:	aba080e7          	jalr	-1350(ra) # 80002bca <trapinit>
    80001118:	00002097          	auipc	ra,0x2
    8000111c:	ada080e7          	jalr	-1318(ra) # 80002bf2 <trapinithart>
    80001120:	00005097          	auipc	ra,0x5
    80001124:	4aa080e7          	jalr	1194(ra) # 800065ca <plicinit>
    80001128:	00005097          	auipc	ra,0x5
    8000112c:	4b8080e7          	jalr	1208(ra) # 800065e0 <plicinithart>
    80001130:	00002097          	auipc	ra,0x2
    80001134:	66e080e7          	jalr	1646(ra) # 8000379e <binit>
    80001138:	00003097          	auipc	ra,0x3
    8000113c:	d12080e7          	jalr	-750(ra) # 80003e4a <iinit>
    80001140:	00004097          	auipc	ra,0x4
    80001144:	cb0080e7          	jalr	-848(ra) # 80004df0 <fileinit>
    80001148:	00005097          	auipc	ra,0x5
    8000114c:	5a0080e7          	jalr	1440(ra) # 800066e8 <virtio_disk_init>
    80001150:	00001097          	auipc	ra,0x1
    80001154:	e78080e7          	jalr	-392(ra) # 80001fc8 <userinit>
    80001158:	0ff0000f          	fence
    8000115c:	4785                	li	a5,1
    8000115e:	00008717          	auipc	a4,0x8
    80001162:	aaf72d23          	sw	a5,-1350(a4) # 80008c18 <started>
    80001166:	b789                	j	800010a8 <main+0x56>

0000000080001168 <kvminithart>:
    80001168:	1141                	addi	sp,sp,-16
    8000116a:	e422                	sd	s0,8(sp)
    8000116c:	0800                	addi	s0,sp,16
    8000116e:	12000073          	sfence.vma
    80001172:	00008797          	auipc	a5,0x8
    80001176:	aae7b783          	ld	a5,-1362(a5) # 80008c20 <kernel_pagetable>
    8000117a:	83b1                	srli	a5,a5,0xc
    8000117c:	577d                	li	a4,-1
    8000117e:	177e                	slli	a4,a4,0x3f
    80001180:	8fd9                	or	a5,a5,a4
    80001182:	18079073          	csrw	satp,a5
    80001186:	12000073          	sfence.vma
    8000118a:	6422                	ld	s0,8(sp)
    8000118c:	0141                	addi	sp,sp,16
    8000118e:	8082                	ret

0000000080001190 <walk>:
    80001190:	7139                	addi	sp,sp,-64
    80001192:	fc06                	sd	ra,56(sp)
    80001194:	f822                	sd	s0,48(sp)
    80001196:	f426                	sd	s1,40(sp)
    80001198:	f04a                	sd	s2,32(sp)
    8000119a:	ec4e                	sd	s3,24(sp)
    8000119c:	e852                	sd	s4,16(sp)
    8000119e:	e456                	sd	s5,8(sp)
    800011a0:	e05a                	sd	s6,0(sp)
    800011a2:	0080                	addi	s0,sp,64
    800011a4:	84aa                	mv	s1,a0
    800011a6:	89ae                	mv	s3,a1
    800011a8:	8ab2                	mv	s5,a2
    800011aa:	57fd                	li	a5,-1
    800011ac:	83e9                	srli	a5,a5,0x1a
    800011ae:	4a79                	li	s4,30
    800011b0:	4b31                	li	s6,12
    800011b2:	04b7f263          	bgeu	a5,a1,800011f6 <walk+0x66>
    800011b6:	00007517          	auipc	a0,0x7
    800011ba:	f4a50513          	addi	a0,a0,-182 # 80008100 <digits+0xc0>
    800011be:	fffff097          	auipc	ra,0xfffff
    800011c2:	386080e7          	jalr	902(ra) # 80000544 <panic>
    800011c6:	060a8663          	beqz	s5,80001232 <walk+0xa2>
    800011ca:	00000097          	auipc	ra,0x0
    800011ce:	aaa080e7          	jalr	-1366(ra) # 80000c74 <kalloc>
    800011d2:	84aa                	mv	s1,a0
    800011d4:	c529                	beqz	a0,8000121e <walk+0x8e>
    800011d6:	6605                	lui	a2,0x1
    800011d8:	4581                	li	a1,0
    800011da:	00000097          	auipc	ra,0x0
    800011de:	cca080e7          	jalr	-822(ra) # 80000ea4 <memset>
    800011e2:	00c4d793          	srli	a5,s1,0xc
    800011e6:	07aa                	slli	a5,a5,0xa
    800011e8:	0017e793          	ori	a5,a5,1
    800011ec:	00f93023          	sd	a5,0(s2)
    800011f0:	3a5d                	addiw	s4,s4,-9
    800011f2:	036a0063          	beq	s4,s6,80001212 <walk+0x82>
    800011f6:	0149d933          	srl	s2,s3,s4
    800011fa:	1ff97913          	andi	s2,s2,511
    800011fe:	090e                	slli	s2,s2,0x3
    80001200:	9926                	add	s2,s2,s1
    80001202:	00093483          	ld	s1,0(s2)
    80001206:	0014f793          	andi	a5,s1,1
    8000120a:	dfd5                	beqz	a5,800011c6 <walk+0x36>
    8000120c:	80a9                	srli	s1,s1,0xa
    8000120e:	04b2                	slli	s1,s1,0xc
    80001210:	b7c5                	j	800011f0 <walk+0x60>
    80001212:	00c9d513          	srli	a0,s3,0xc
    80001216:	1ff57513          	andi	a0,a0,511
    8000121a:	050e                	slli	a0,a0,0x3
    8000121c:	9526                	add	a0,a0,s1
    8000121e:	70e2                	ld	ra,56(sp)
    80001220:	7442                	ld	s0,48(sp)
    80001222:	74a2                	ld	s1,40(sp)
    80001224:	7902                	ld	s2,32(sp)
    80001226:	69e2                	ld	s3,24(sp)
    80001228:	6a42                	ld	s4,16(sp)
    8000122a:	6aa2                	ld	s5,8(sp)
    8000122c:	6b02                	ld	s6,0(sp)
    8000122e:	6121                	addi	sp,sp,64
    80001230:	8082                	ret
    80001232:	4501                	li	a0,0
    80001234:	b7ed                	j	8000121e <walk+0x8e>

0000000080001236 <walkaddr>:
    80001236:	57fd                	li	a5,-1
    80001238:	83e9                	srli	a5,a5,0x1a
    8000123a:	00b7f463          	bgeu	a5,a1,80001242 <walkaddr+0xc>
    8000123e:	4501                	li	a0,0
    80001240:	8082                	ret
    80001242:	1141                	addi	sp,sp,-16
    80001244:	e406                	sd	ra,8(sp)
    80001246:	e022                	sd	s0,0(sp)
    80001248:	0800                	addi	s0,sp,16
    8000124a:	4601                	li	a2,0
    8000124c:	00000097          	auipc	ra,0x0
    80001250:	f44080e7          	jalr	-188(ra) # 80001190 <walk>
    80001254:	c105                	beqz	a0,80001274 <walkaddr+0x3e>
    80001256:	611c                	ld	a5,0(a0)
    80001258:	0117f693          	andi	a3,a5,17
    8000125c:	4745                	li	a4,17
    8000125e:	4501                	li	a0,0
    80001260:	00e68663          	beq	a3,a4,8000126c <walkaddr+0x36>
    80001264:	60a2                	ld	ra,8(sp)
    80001266:	6402                	ld	s0,0(sp)
    80001268:	0141                	addi	sp,sp,16
    8000126a:	8082                	ret
    8000126c:	00a7d513          	srli	a0,a5,0xa
    80001270:	0532                	slli	a0,a0,0xc
    80001272:	bfcd                	j	80001264 <walkaddr+0x2e>
    80001274:	4501                	li	a0,0
    80001276:	b7fd                	j	80001264 <walkaddr+0x2e>

0000000080001278 <mappages>:
    80001278:	715d                	addi	sp,sp,-80
    8000127a:	e486                	sd	ra,72(sp)
    8000127c:	e0a2                	sd	s0,64(sp)
    8000127e:	fc26                	sd	s1,56(sp)
    80001280:	f84a                	sd	s2,48(sp)
    80001282:	f44e                	sd	s3,40(sp)
    80001284:	f052                	sd	s4,32(sp)
    80001286:	ec56                	sd	s5,24(sp)
    80001288:	e85a                	sd	s6,16(sp)
    8000128a:	e45e                	sd	s7,8(sp)
    8000128c:	0880                	addi	s0,sp,80
    8000128e:	c205                	beqz	a2,800012ae <mappages+0x36>
    80001290:	8aaa                	mv	s5,a0
    80001292:	8b3a                	mv	s6,a4
    80001294:	77fd                	lui	a5,0xfffff
    80001296:	00f5fa33          	and	s4,a1,a5
    8000129a:	15fd                	addi	a1,a1,-1
    8000129c:	00c589b3          	add	s3,a1,a2
    800012a0:	00f9f9b3          	and	s3,s3,a5
    800012a4:	8952                	mv	s2,s4
    800012a6:	41468a33          	sub	s4,a3,s4
    800012aa:	6b85                	lui	s7,0x1
    800012ac:	a015                	j	800012d0 <mappages+0x58>
    800012ae:	00007517          	auipc	a0,0x7
    800012b2:	e5a50513          	addi	a0,a0,-422 # 80008108 <digits+0xc8>
    800012b6:	fffff097          	auipc	ra,0xfffff
    800012ba:	28e080e7          	jalr	654(ra) # 80000544 <panic>
    800012be:	00007517          	auipc	a0,0x7
    800012c2:	e5a50513          	addi	a0,a0,-422 # 80008118 <digits+0xd8>
    800012c6:	fffff097          	auipc	ra,0xfffff
    800012ca:	27e080e7          	jalr	638(ra) # 80000544 <panic>
    800012ce:	995e                	add	s2,s2,s7
    800012d0:	012a04b3          	add	s1,s4,s2
    800012d4:	4605                	li	a2,1
    800012d6:	85ca                	mv	a1,s2
    800012d8:	8556                	mv	a0,s5
    800012da:	00000097          	auipc	ra,0x0
    800012de:	eb6080e7          	jalr	-330(ra) # 80001190 <walk>
    800012e2:	cd19                	beqz	a0,80001300 <mappages+0x88>
    800012e4:	611c                	ld	a5,0(a0)
    800012e6:	8b85                	andi	a5,a5,1
    800012e8:	fbf9                	bnez	a5,800012be <mappages+0x46>
    800012ea:	80b1                	srli	s1,s1,0xc
    800012ec:	04aa                	slli	s1,s1,0xa
    800012ee:	0164e4b3          	or	s1,s1,s6
    800012f2:	0014e493          	ori	s1,s1,1
    800012f6:	e104                	sd	s1,0(a0)
    800012f8:	fd391be3          	bne	s2,s3,800012ce <mappages+0x56>
    800012fc:	4501                	li	a0,0
    800012fe:	a011                	j	80001302 <mappages+0x8a>
    80001300:	557d                	li	a0,-1
    80001302:	60a6                	ld	ra,72(sp)
    80001304:	6406                	ld	s0,64(sp)
    80001306:	74e2                	ld	s1,56(sp)
    80001308:	7942                	ld	s2,48(sp)
    8000130a:	79a2                	ld	s3,40(sp)
    8000130c:	7a02                	ld	s4,32(sp)
    8000130e:	6ae2                	ld	s5,24(sp)
    80001310:	6b42                	ld	s6,16(sp)
    80001312:	6ba2                	ld	s7,8(sp)
    80001314:	6161                	addi	sp,sp,80
    80001316:	8082                	ret

0000000080001318 <kvmmap>:
    80001318:	1141                	addi	sp,sp,-16
    8000131a:	e406                	sd	ra,8(sp)
    8000131c:	e022                	sd	s0,0(sp)
    8000131e:	0800                	addi	s0,sp,16
    80001320:	87b6                	mv	a5,a3
    80001322:	86b2                	mv	a3,a2
    80001324:	863e                	mv	a2,a5
    80001326:	00000097          	auipc	ra,0x0
    8000132a:	f52080e7          	jalr	-174(ra) # 80001278 <mappages>
    8000132e:	e509                	bnez	a0,80001338 <kvmmap+0x20>
    80001330:	60a2                	ld	ra,8(sp)
    80001332:	6402                	ld	s0,0(sp)
    80001334:	0141                	addi	sp,sp,16
    80001336:	8082                	ret
    80001338:	00007517          	auipc	a0,0x7
    8000133c:	df050513          	addi	a0,a0,-528 # 80008128 <digits+0xe8>
    80001340:	fffff097          	auipc	ra,0xfffff
    80001344:	204080e7          	jalr	516(ra) # 80000544 <panic>

0000000080001348 <kvmmake>:
    80001348:	1101                	addi	sp,sp,-32
    8000134a:	ec06                	sd	ra,24(sp)
    8000134c:	e822                	sd	s0,16(sp)
    8000134e:	e426                	sd	s1,8(sp)
    80001350:	e04a                	sd	s2,0(sp)
    80001352:	1000                	addi	s0,sp,32
    80001354:	00000097          	auipc	ra,0x0
    80001358:	920080e7          	jalr	-1760(ra) # 80000c74 <kalloc>
    8000135c:	84aa                	mv	s1,a0
    8000135e:	6605                	lui	a2,0x1
    80001360:	4581                	li	a1,0
    80001362:	00000097          	auipc	ra,0x0
    80001366:	b42080e7          	jalr	-1214(ra) # 80000ea4 <memset>
    8000136a:	4719                	li	a4,6
    8000136c:	6685                	lui	a3,0x1
    8000136e:	10000637          	lui	a2,0x10000
    80001372:	100005b7          	lui	a1,0x10000
    80001376:	8526                	mv	a0,s1
    80001378:	00000097          	auipc	ra,0x0
    8000137c:	fa0080e7          	jalr	-96(ra) # 80001318 <kvmmap>
    80001380:	4719                	li	a4,6
    80001382:	6685                	lui	a3,0x1
    80001384:	10001637          	lui	a2,0x10001
    80001388:	100015b7          	lui	a1,0x10001
    8000138c:	8526                	mv	a0,s1
    8000138e:	00000097          	auipc	ra,0x0
    80001392:	f8a080e7          	jalr	-118(ra) # 80001318 <kvmmap>
    80001396:	4719                	li	a4,6
    80001398:	004006b7          	lui	a3,0x400
    8000139c:	0c000637          	lui	a2,0xc000
    800013a0:	0c0005b7          	lui	a1,0xc000
    800013a4:	8526                	mv	a0,s1
    800013a6:	00000097          	auipc	ra,0x0
    800013aa:	f72080e7          	jalr	-142(ra) # 80001318 <kvmmap>
    800013ae:	00007917          	auipc	s2,0x7
    800013b2:	c5290913          	addi	s2,s2,-942 # 80008000 <etext>
    800013b6:	4729                	li	a4,10
    800013b8:	80007697          	auipc	a3,0x80007
    800013bc:	c4868693          	addi	a3,a3,-952 # 8000 <_entry-0x7fff8000>
    800013c0:	4605                	li	a2,1
    800013c2:	067e                	slli	a2,a2,0x1f
    800013c4:	85b2                	mv	a1,a2
    800013c6:	8526                	mv	a0,s1
    800013c8:	00000097          	auipc	ra,0x0
    800013cc:	f50080e7          	jalr	-176(ra) # 80001318 <kvmmap>
    800013d0:	4719                	li	a4,6
    800013d2:	46c5                	li	a3,17
    800013d4:	06ee                	slli	a3,a3,0x1b
    800013d6:	412686b3          	sub	a3,a3,s2
    800013da:	864a                	mv	a2,s2
    800013dc:	85ca                	mv	a1,s2
    800013de:	8526                	mv	a0,s1
    800013e0:	00000097          	auipc	ra,0x0
    800013e4:	f38080e7          	jalr	-200(ra) # 80001318 <kvmmap>
    800013e8:	4729                	li	a4,10
    800013ea:	6685                	lui	a3,0x1
    800013ec:	00006617          	auipc	a2,0x6
    800013f0:	c1460613          	addi	a2,a2,-1004 # 80007000 <_trampoline>
    800013f4:	040005b7          	lui	a1,0x4000
    800013f8:	15fd                	addi	a1,a1,-1
    800013fa:	05b2                	slli	a1,a1,0xc
    800013fc:	8526                	mv	a0,s1
    800013fe:	00000097          	auipc	ra,0x0
    80001402:	f1a080e7          	jalr	-230(ra) # 80001318 <kvmmap>
    80001406:	8526                	mv	a0,s1
    80001408:	00000097          	auipc	ra,0x0
    8000140c:	738080e7          	jalr	1848(ra) # 80001b40 <proc_mapstacks>
    80001410:	8526                	mv	a0,s1
    80001412:	60e2                	ld	ra,24(sp)
    80001414:	6442                	ld	s0,16(sp)
    80001416:	64a2                	ld	s1,8(sp)
    80001418:	6902                	ld	s2,0(sp)
    8000141a:	6105                	addi	sp,sp,32
    8000141c:	8082                	ret

000000008000141e <kvminit>:
    8000141e:	1141                	addi	sp,sp,-16
    80001420:	e406                	sd	ra,8(sp)
    80001422:	e022                	sd	s0,0(sp)
    80001424:	0800                	addi	s0,sp,16
    80001426:	00000097          	auipc	ra,0x0
    8000142a:	f22080e7          	jalr	-222(ra) # 80001348 <kvmmake>
    8000142e:	00007797          	auipc	a5,0x7
    80001432:	7ea7b923          	sd	a0,2034(a5) # 80008c20 <kernel_pagetable>
    80001436:	60a2                	ld	ra,8(sp)
    80001438:	6402                	ld	s0,0(sp)
    8000143a:	0141                	addi	sp,sp,16
    8000143c:	8082                	ret

000000008000143e <uvmunmap>:
    8000143e:	715d                	addi	sp,sp,-80
    80001440:	e486                	sd	ra,72(sp)
    80001442:	e0a2                	sd	s0,64(sp)
    80001444:	fc26                	sd	s1,56(sp)
    80001446:	f84a                	sd	s2,48(sp)
    80001448:	f44e                	sd	s3,40(sp)
    8000144a:	f052                	sd	s4,32(sp)
    8000144c:	ec56                	sd	s5,24(sp)
    8000144e:	e85a                	sd	s6,16(sp)
    80001450:	e45e                	sd	s7,8(sp)
    80001452:	0880                	addi	s0,sp,80
    80001454:	03459793          	slli	a5,a1,0x34
    80001458:	e795                	bnez	a5,80001484 <uvmunmap+0x46>
    8000145a:	8a2a                	mv	s4,a0
    8000145c:	892e                	mv	s2,a1
    8000145e:	8ab6                	mv	s5,a3
    80001460:	0632                	slli	a2,a2,0xc
    80001462:	00b609b3          	add	s3,a2,a1
    80001466:	4b85                	li	s7,1
    80001468:	6b05                	lui	s6,0x1
    8000146a:	0735e863          	bltu	a1,s3,800014da <uvmunmap+0x9c>
    8000146e:	60a6                	ld	ra,72(sp)
    80001470:	6406                	ld	s0,64(sp)
    80001472:	74e2                	ld	s1,56(sp)
    80001474:	7942                	ld	s2,48(sp)
    80001476:	79a2                	ld	s3,40(sp)
    80001478:	7a02                	ld	s4,32(sp)
    8000147a:	6ae2                	ld	s5,24(sp)
    8000147c:	6b42                	ld	s6,16(sp)
    8000147e:	6ba2                	ld	s7,8(sp)
    80001480:	6161                	addi	sp,sp,80
    80001482:	8082                	ret
    80001484:	00007517          	auipc	a0,0x7
    80001488:	cac50513          	addi	a0,a0,-852 # 80008130 <digits+0xf0>
    8000148c:	fffff097          	auipc	ra,0xfffff
    80001490:	0b8080e7          	jalr	184(ra) # 80000544 <panic>
    80001494:	00007517          	auipc	a0,0x7
    80001498:	cb450513          	addi	a0,a0,-844 # 80008148 <digits+0x108>
    8000149c:	fffff097          	auipc	ra,0xfffff
    800014a0:	0a8080e7          	jalr	168(ra) # 80000544 <panic>
    800014a4:	00007517          	auipc	a0,0x7
    800014a8:	cb450513          	addi	a0,a0,-844 # 80008158 <digits+0x118>
    800014ac:	fffff097          	auipc	ra,0xfffff
    800014b0:	098080e7          	jalr	152(ra) # 80000544 <panic>
    800014b4:	00007517          	auipc	a0,0x7
    800014b8:	cbc50513          	addi	a0,a0,-836 # 80008170 <digits+0x130>
    800014bc:	fffff097          	auipc	ra,0xfffff
    800014c0:	088080e7          	jalr	136(ra) # 80000544 <panic>
    800014c4:	8129                	srli	a0,a0,0xa
    800014c6:	0532                	slli	a0,a0,0xc
    800014c8:	fffff097          	auipc	ra,0xfffff
    800014cc:	606080e7          	jalr	1542(ra) # 80000ace <kfree>
    800014d0:	0004b023          	sd	zero,0(s1)
    800014d4:	995a                	add	s2,s2,s6
    800014d6:	f9397ce3          	bgeu	s2,s3,8000146e <uvmunmap+0x30>
    800014da:	4601                	li	a2,0
    800014dc:	85ca                	mv	a1,s2
    800014de:	8552                	mv	a0,s4
    800014e0:	00000097          	auipc	ra,0x0
    800014e4:	cb0080e7          	jalr	-848(ra) # 80001190 <walk>
    800014e8:	84aa                	mv	s1,a0
    800014ea:	d54d                	beqz	a0,80001494 <uvmunmap+0x56>
    800014ec:	6108                	ld	a0,0(a0)
    800014ee:	00157793          	andi	a5,a0,1
    800014f2:	dbcd                	beqz	a5,800014a4 <uvmunmap+0x66>
    800014f4:	3ff57793          	andi	a5,a0,1023
    800014f8:	fb778ee3          	beq	a5,s7,800014b4 <uvmunmap+0x76>
    800014fc:	fc0a8ae3          	beqz	s5,800014d0 <uvmunmap+0x92>
    80001500:	b7d1                	j	800014c4 <uvmunmap+0x86>

0000000080001502 <uvmcreate>:
    80001502:	1101                	addi	sp,sp,-32
    80001504:	ec06                	sd	ra,24(sp)
    80001506:	e822                	sd	s0,16(sp)
    80001508:	e426                	sd	s1,8(sp)
    8000150a:	1000                	addi	s0,sp,32
    8000150c:	fffff097          	auipc	ra,0xfffff
    80001510:	768080e7          	jalr	1896(ra) # 80000c74 <kalloc>
    80001514:	84aa                	mv	s1,a0
    80001516:	c519                	beqz	a0,80001524 <uvmcreate+0x22>
    80001518:	6605                	lui	a2,0x1
    8000151a:	4581                	li	a1,0
    8000151c:	00000097          	auipc	ra,0x0
    80001520:	988080e7          	jalr	-1656(ra) # 80000ea4 <memset>
    80001524:	8526                	mv	a0,s1
    80001526:	60e2                	ld	ra,24(sp)
    80001528:	6442                	ld	s0,16(sp)
    8000152a:	64a2                	ld	s1,8(sp)
    8000152c:	6105                	addi	sp,sp,32
    8000152e:	8082                	ret

0000000080001530 <uvmfirst>:
    80001530:	7179                	addi	sp,sp,-48
    80001532:	f406                	sd	ra,40(sp)
    80001534:	f022                	sd	s0,32(sp)
    80001536:	ec26                	sd	s1,24(sp)
    80001538:	e84a                	sd	s2,16(sp)
    8000153a:	e44e                	sd	s3,8(sp)
    8000153c:	e052                	sd	s4,0(sp)
    8000153e:	1800                	addi	s0,sp,48
    80001540:	6785                	lui	a5,0x1
    80001542:	04f67863          	bgeu	a2,a5,80001592 <uvmfirst+0x62>
    80001546:	8a2a                	mv	s4,a0
    80001548:	89ae                	mv	s3,a1
    8000154a:	84b2                	mv	s1,a2
    8000154c:	fffff097          	auipc	ra,0xfffff
    80001550:	728080e7          	jalr	1832(ra) # 80000c74 <kalloc>
    80001554:	892a                	mv	s2,a0
    80001556:	6605                	lui	a2,0x1
    80001558:	4581                	li	a1,0
    8000155a:	00000097          	auipc	ra,0x0
    8000155e:	94a080e7          	jalr	-1718(ra) # 80000ea4 <memset>
    80001562:	4779                	li	a4,30
    80001564:	86ca                	mv	a3,s2
    80001566:	6605                	lui	a2,0x1
    80001568:	4581                	li	a1,0
    8000156a:	8552                	mv	a0,s4
    8000156c:	00000097          	auipc	ra,0x0
    80001570:	d0c080e7          	jalr	-756(ra) # 80001278 <mappages>
    80001574:	8626                	mv	a2,s1
    80001576:	85ce                	mv	a1,s3
    80001578:	854a                	mv	a0,s2
    8000157a:	00000097          	auipc	ra,0x0
    8000157e:	98a080e7          	jalr	-1654(ra) # 80000f04 <memmove>
    80001582:	70a2                	ld	ra,40(sp)
    80001584:	7402                	ld	s0,32(sp)
    80001586:	64e2                	ld	s1,24(sp)
    80001588:	6942                	ld	s2,16(sp)
    8000158a:	69a2                	ld	s3,8(sp)
    8000158c:	6a02                	ld	s4,0(sp)
    8000158e:	6145                	addi	sp,sp,48
    80001590:	8082                	ret
    80001592:	00007517          	auipc	a0,0x7
    80001596:	bf650513          	addi	a0,a0,-1034 # 80008188 <digits+0x148>
    8000159a:	fffff097          	auipc	ra,0xfffff
    8000159e:	faa080e7          	jalr	-86(ra) # 80000544 <panic>

00000000800015a2 <uvmdealloc>:
    800015a2:	1101                	addi	sp,sp,-32
    800015a4:	ec06                	sd	ra,24(sp)
    800015a6:	e822                	sd	s0,16(sp)
    800015a8:	e426                	sd	s1,8(sp)
    800015aa:	1000                	addi	s0,sp,32
    800015ac:	84ae                	mv	s1,a1
    800015ae:	00b67d63          	bgeu	a2,a1,800015c8 <uvmdealloc+0x26>
    800015b2:	84b2                	mv	s1,a2
    800015b4:	6785                	lui	a5,0x1
    800015b6:	17fd                	addi	a5,a5,-1
    800015b8:	00f60733          	add	a4,a2,a5
    800015bc:	767d                	lui	a2,0xfffff
    800015be:	8f71                	and	a4,a4,a2
    800015c0:	97ae                	add	a5,a5,a1
    800015c2:	8ff1                	and	a5,a5,a2
    800015c4:	00f76863          	bltu	a4,a5,800015d4 <uvmdealloc+0x32>
    800015c8:	8526                	mv	a0,s1
    800015ca:	60e2                	ld	ra,24(sp)
    800015cc:	6442                	ld	s0,16(sp)
    800015ce:	64a2                	ld	s1,8(sp)
    800015d0:	6105                	addi	sp,sp,32
    800015d2:	8082                	ret
    800015d4:	8f99                	sub	a5,a5,a4
    800015d6:	83b1                	srli	a5,a5,0xc
    800015d8:	4685                	li	a3,1
    800015da:	0007861b          	sext.w	a2,a5
    800015de:	85ba                	mv	a1,a4
    800015e0:	00000097          	auipc	ra,0x0
    800015e4:	e5e080e7          	jalr	-418(ra) # 8000143e <uvmunmap>
    800015e8:	b7c5                	j	800015c8 <uvmdealloc+0x26>

00000000800015ea <uvmalloc>:
    800015ea:	0ab66563          	bltu	a2,a1,80001694 <uvmalloc+0xaa>
    800015ee:	7139                	addi	sp,sp,-64
    800015f0:	fc06                	sd	ra,56(sp)
    800015f2:	f822                	sd	s0,48(sp)
    800015f4:	f426                	sd	s1,40(sp)
    800015f6:	f04a                	sd	s2,32(sp)
    800015f8:	ec4e                	sd	s3,24(sp)
    800015fa:	e852                	sd	s4,16(sp)
    800015fc:	e456                	sd	s5,8(sp)
    800015fe:	e05a                	sd	s6,0(sp)
    80001600:	0080                	addi	s0,sp,64
    80001602:	8aaa                	mv	s5,a0
    80001604:	8a32                	mv	s4,a2
    80001606:	6985                	lui	s3,0x1
    80001608:	19fd                	addi	s3,s3,-1
    8000160a:	95ce                	add	a1,a1,s3
    8000160c:	79fd                	lui	s3,0xfffff
    8000160e:	0135f9b3          	and	s3,a1,s3
    80001612:	08c9f363          	bgeu	s3,a2,80001698 <uvmalloc+0xae>
    80001616:	894e                	mv	s2,s3
    80001618:	0126eb13          	ori	s6,a3,18
    8000161c:	fffff097          	auipc	ra,0xfffff
    80001620:	658080e7          	jalr	1624(ra) # 80000c74 <kalloc>
    80001624:	84aa                	mv	s1,a0
    80001626:	c51d                	beqz	a0,80001654 <uvmalloc+0x6a>
    80001628:	6605                	lui	a2,0x1
    8000162a:	4581                	li	a1,0
    8000162c:	00000097          	auipc	ra,0x0
    80001630:	878080e7          	jalr	-1928(ra) # 80000ea4 <memset>
    80001634:	875a                	mv	a4,s6
    80001636:	86a6                	mv	a3,s1
    80001638:	6605                	lui	a2,0x1
    8000163a:	85ca                	mv	a1,s2
    8000163c:	8556                	mv	a0,s5
    8000163e:	00000097          	auipc	ra,0x0
    80001642:	c3a080e7          	jalr	-966(ra) # 80001278 <mappages>
    80001646:	e90d                	bnez	a0,80001678 <uvmalloc+0x8e>
    80001648:	6785                	lui	a5,0x1
    8000164a:	993e                	add	s2,s2,a5
    8000164c:	fd4968e3          	bltu	s2,s4,8000161c <uvmalloc+0x32>
    80001650:	8552                	mv	a0,s4
    80001652:	a809                	j	80001664 <uvmalloc+0x7a>
    80001654:	864e                	mv	a2,s3
    80001656:	85ca                	mv	a1,s2
    80001658:	8556                	mv	a0,s5
    8000165a:	00000097          	auipc	ra,0x0
    8000165e:	f48080e7          	jalr	-184(ra) # 800015a2 <uvmdealloc>
    80001662:	4501                	li	a0,0
    80001664:	70e2                	ld	ra,56(sp)
    80001666:	7442                	ld	s0,48(sp)
    80001668:	74a2                	ld	s1,40(sp)
    8000166a:	7902                	ld	s2,32(sp)
    8000166c:	69e2                	ld	s3,24(sp)
    8000166e:	6a42                	ld	s4,16(sp)
    80001670:	6aa2                	ld	s5,8(sp)
    80001672:	6b02                	ld	s6,0(sp)
    80001674:	6121                	addi	sp,sp,64
    80001676:	8082                	ret
    80001678:	8526                	mv	a0,s1
    8000167a:	fffff097          	auipc	ra,0xfffff
    8000167e:	454080e7          	jalr	1108(ra) # 80000ace <kfree>
    80001682:	864e                	mv	a2,s3
    80001684:	85ca                	mv	a1,s2
    80001686:	8556                	mv	a0,s5
    80001688:	00000097          	auipc	ra,0x0
    8000168c:	f1a080e7          	jalr	-230(ra) # 800015a2 <uvmdealloc>
    80001690:	4501                	li	a0,0
    80001692:	bfc9                	j	80001664 <uvmalloc+0x7a>
    80001694:	852e                	mv	a0,a1
    80001696:	8082                	ret
    80001698:	8532                	mv	a0,a2
    8000169a:	b7e9                	j	80001664 <uvmalloc+0x7a>

000000008000169c <freewalk>:
    8000169c:	7179                	addi	sp,sp,-48
    8000169e:	f406                	sd	ra,40(sp)
    800016a0:	f022                	sd	s0,32(sp)
    800016a2:	ec26                	sd	s1,24(sp)
    800016a4:	e84a                	sd	s2,16(sp)
    800016a6:	e44e                	sd	s3,8(sp)
    800016a8:	e052                	sd	s4,0(sp)
    800016aa:	1800                	addi	s0,sp,48
    800016ac:	8a2a                	mv	s4,a0
    800016ae:	84aa                	mv	s1,a0
    800016b0:	6905                	lui	s2,0x1
    800016b2:	992a                	add	s2,s2,a0
    800016b4:	4985                	li	s3,1
    800016b6:	a821                	j	800016ce <freewalk+0x32>
    800016b8:	8129                	srli	a0,a0,0xa
    800016ba:	0532                	slli	a0,a0,0xc
    800016bc:	00000097          	auipc	ra,0x0
    800016c0:	fe0080e7          	jalr	-32(ra) # 8000169c <freewalk>
    800016c4:	0004b023          	sd	zero,0(s1)
    800016c8:	04a1                	addi	s1,s1,8
    800016ca:	03248163          	beq	s1,s2,800016ec <freewalk+0x50>
    800016ce:	6088                	ld	a0,0(s1)
    800016d0:	00f57793          	andi	a5,a0,15
    800016d4:	ff3782e3          	beq	a5,s3,800016b8 <freewalk+0x1c>
    800016d8:	8905                	andi	a0,a0,1
    800016da:	d57d                	beqz	a0,800016c8 <freewalk+0x2c>
    800016dc:	00007517          	auipc	a0,0x7
    800016e0:	acc50513          	addi	a0,a0,-1332 # 800081a8 <digits+0x168>
    800016e4:	fffff097          	auipc	ra,0xfffff
    800016e8:	e60080e7          	jalr	-416(ra) # 80000544 <panic>
    800016ec:	8552                	mv	a0,s4
    800016ee:	fffff097          	auipc	ra,0xfffff
    800016f2:	3e0080e7          	jalr	992(ra) # 80000ace <kfree>
    800016f6:	70a2                	ld	ra,40(sp)
    800016f8:	7402                	ld	s0,32(sp)
    800016fa:	64e2                	ld	s1,24(sp)
    800016fc:	6942                	ld	s2,16(sp)
    800016fe:	69a2                	ld	s3,8(sp)
    80001700:	6a02                	ld	s4,0(sp)
    80001702:	6145                	addi	sp,sp,48
    80001704:	8082                	ret

0000000080001706 <uvmfree>:
    80001706:	1101                	addi	sp,sp,-32
    80001708:	ec06                	sd	ra,24(sp)
    8000170a:	e822                	sd	s0,16(sp)
    8000170c:	e426                	sd	s1,8(sp)
    8000170e:	1000                	addi	s0,sp,32
    80001710:	84aa                	mv	s1,a0
    80001712:	e999                	bnez	a1,80001728 <uvmfree+0x22>
    80001714:	8526                	mv	a0,s1
    80001716:	00000097          	auipc	ra,0x0
    8000171a:	f86080e7          	jalr	-122(ra) # 8000169c <freewalk>
    8000171e:	60e2                	ld	ra,24(sp)
    80001720:	6442                	ld	s0,16(sp)
    80001722:	64a2                	ld	s1,8(sp)
    80001724:	6105                	addi	sp,sp,32
    80001726:	8082                	ret
    80001728:	6605                	lui	a2,0x1
    8000172a:	167d                	addi	a2,a2,-1
    8000172c:	962e                	add	a2,a2,a1
    8000172e:	4685                	li	a3,1
    80001730:	8231                	srli	a2,a2,0xc
    80001732:	4581                	li	a1,0
    80001734:	00000097          	auipc	ra,0x0
    80001738:	d0a080e7          	jalr	-758(ra) # 8000143e <uvmunmap>
    8000173c:	bfe1                	j	80001714 <uvmfree+0xe>

000000008000173e <uvmcopy>:
    8000173e:	c271                	beqz	a2,80001802 <uvmcopy+0xc4>
    80001740:	7139                	addi	sp,sp,-64
    80001742:	fc06                	sd	ra,56(sp)
    80001744:	f822                	sd	s0,48(sp)
    80001746:	f426                	sd	s1,40(sp)
    80001748:	f04a                	sd	s2,32(sp)
    8000174a:	ec4e                	sd	s3,24(sp)
    8000174c:	e852                	sd	s4,16(sp)
    8000174e:	e456                	sd	s5,8(sp)
    80001750:	e05a                	sd	s6,0(sp)
    80001752:	0080                	addi	s0,sp,64
    80001754:	8b2a                	mv	s6,a0
    80001756:	8aae                	mv	s5,a1
    80001758:	8a32                	mv	s4,a2
    8000175a:	4901                	li	s2,0
    8000175c:	a0a9                	j	800017a6 <uvmcopy+0x68>
    8000175e:	00007517          	auipc	a0,0x7
    80001762:	a5a50513          	addi	a0,a0,-1446 # 800081b8 <digits+0x178>
    80001766:	fffff097          	auipc	ra,0xfffff
    8000176a:	dde080e7          	jalr	-546(ra) # 80000544 <panic>
    8000176e:	00007517          	auipc	a0,0x7
    80001772:	a6a50513          	addi	a0,a0,-1430 # 800081d8 <digits+0x198>
    80001776:	fffff097          	auipc	ra,0xfffff
    8000177a:	dce080e7          	jalr	-562(ra) # 80000544 <panic>
    8000177e:	854e                	mv	a0,s3
    80001780:	fffff097          	auipc	ra,0xfffff
    80001784:	27e080e7          	jalr	638(ra) # 800009fe <krefincr>
    80001788:	1004e713          	ori	a4,s1,256
    8000178c:	86ce                	mv	a3,s3
    8000178e:	6605                	lui	a2,0x1
    80001790:	85ca                	mv	a1,s2
    80001792:	8556                	mv	a0,s5
    80001794:	00000097          	auipc	ra,0x0
    80001798:	ae4080e7          	jalr	-1308(ra) # 80001278 <mappages>
    8000179c:	ed1d                	bnez	a0,800017da <uvmcopy+0x9c>
    8000179e:	6785                	lui	a5,0x1
    800017a0:	993e                	add	s2,s2,a5
    800017a2:	05497663          	bgeu	s2,s4,800017ee <uvmcopy+0xb0>
    800017a6:	4601                	li	a2,0
    800017a8:	85ca                	mv	a1,s2
    800017aa:	855a                	mv	a0,s6
    800017ac:	00000097          	auipc	ra,0x0
    800017b0:	9e4080e7          	jalr	-1564(ra) # 80001190 <walk>
    800017b4:	d54d                	beqz	a0,8000175e <uvmcopy+0x20>
    800017b6:	611c                	ld	a5,0(a0)
    800017b8:	0017f713          	andi	a4,a5,1
    800017bc:	db4d                	beqz	a4,8000176e <uvmcopy+0x30>
    800017be:	00a7d993          	srli	s3,a5,0xa
    800017c2:	09b2                	slli	s3,s3,0xc
    800017c4:	2781                	sext.w	a5,a5
    800017c6:	0047f713          	andi	a4,a5,4
    800017ca:	3ff7f493          	andi	s1,a5,1023
    800017ce:	db45                	beqz	a4,8000177e <uvmcopy+0x40>
    800017d0:	3fb7f793          	andi	a5,a5,1019
    800017d4:	1007e493          	ori	s1,a5,256
    800017d8:	b75d                	j	8000177e <uvmcopy+0x40>
    800017da:	4685                	li	a3,1
    800017dc:	00c95613          	srli	a2,s2,0xc
    800017e0:	4581                	li	a1,0
    800017e2:	8556                	mv	a0,s5
    800017e4:	00000097          	auipc	ra,0x0
    800017e8:	c5a080e7          	jalr	-934(ra) # 8000143e <uvmunmap>
    800017ec:	557d                	li	a0,-1
    800017ee:	70e2                	ld	ra,56(sp)
    800017f0:	7442                	ld	s0,48(sp)
    800017f2:	74a2                	ld	s1,40(sp)
    800017f4:	7902                	ld	s2,32(sp)
    800017f6:	69e2                	ld	s3,24(sp)
    800017f8:	6a42                	ld	s4,16(sp)
    800017fa:	6aa2                	ld	s5,8(sp)
    800017fc:	6b02                	ld	s6,0(sp)
    800017fe:	6121                	addi	sp,sp,64
    80001800:	8082                	ret
    80001802:	4501                	li	a0,0
    80001804:	8082                	ret

0000000080001806 <uvmclear>:
    80001806:	1141                	addi	sp,sp,-16
    80001808:	e406                	sd	ra,8(sp)
    8000180a:	e022                	sd	s0,0(sp)
    8000180c:	0800                	addi	s0,sp,16
    8000180e:	4601                	li	a2,0
    80001810:	00000097          	auipc	ra,0x0
    80001814:	980080e7          	jalr	-1664(ra) # 80001190 <walk>
    80001818:	c901                	beqz	a0,80001828 <uvmclear+0x22>
    8000181a:	611c                	ld	a5,0(a0)
    8000181c:	9bbd                	andi	a5,a5,-17
    8000181e:	e11c                	sd	a5,0(a0)
    80001820:	60a2                	ld	ra,8(sp)
    80001822:	6402                	ld	s0,0(sp)
    80001824:	0141                	addi	sp,sp,16
    80001826:	8082                	ret
    80001828:	00007517          	auipc	a0,0x7
    8000182c:	9d050513          	addi	a0,a0,-1584 # 800081f8 <digits+0x1b8>
    80001830:	fffff097          	auipc	ra,0xfffff
    80001834:	d14080e7          	jalr	-748(ra) # 80000544 <panic>

0000000080001838 <copyout>:
    80001838:	cad1                	beqz	a3,800018cc <copyout+0x94>
    8000183a:	711d                	addi	sp,sp,-96
    8000183c:	ec86                	sd	ra,88(sp)
    8000183e:	e8a2                	sd	s0,80(sp)
    80001840:	e4a6                	sd	s1,72(sp)
    80001842:	e0ca                	sd	s2,64(sp)
    80001844:	fc4e                	sd	s3,56(sp)
    80001846:	f852                	sd	s4,48(sp)
    80001848:	f456                	sd	s5,40(sp)
    8000184a:	f05a                	sd	s6,32(sp)
    8000184c:	ec5e                	sd	s7,24(sp)
    8000184e:	e862                	sd	s8,16(sp)
    80001850:	e466                	sd	s9,8(sp)
    80001852:	1080                	addi	s0,sp,96
    80001854:	8baa                	mv	s7,a0
    80001856:	8aae                	mv	s5,a1
    80001858:	8b32                	mv	s6,a2
    8000185a:	89b6                	mv	s3,a3
    8000185c:	74fd                	lui	s1,0xfffff
    8000185e:	8ced                	and	s1,s1,a1
    80001860:	4785                	li	a5,1
    80001862:	179a                	slli	a5,a5,0x26
    80001864:	0697e663          	bltu	a5,s1,800018d0 <copyout+0x98>
    80001868:	6c85                	lui	s9,0x1
    8000186a:	04000c37          	lui	s8,0x4000
    8000186e:	0c05                	addi	s8,s8,1
    80001870:	0c32                	slli	s8,s8,0xc
    80001872:	a025                	j	8000189a <copyout+0x62>
    80001874:	409a84b3          	sub	s1,s5,s1
    80001878:	0009061b          	sext.w	a2,s2
    8000187c:	85da                	mv	a1,s6
    8000187e:	9526                	add	a0,a0,s1
    80001880:	fffff097          	auipc	ra,0xfffff
    80001884:	684080e7          	jalr	1668(ra) # 80000f04 <memmove>
    80001888:	412989b3          	sub	s3,s3,s2
    8000188c:	9b4a                	add	s6,s6,s2
    8000188e:	02098d63          	beqz	s3,800018c8 <copyout+0x90>
    80001892:	058a0163          	beq	s4,s8,800018d4 <copyout+0x9c>
    80001896:	84d2                	mv	s1,s4
    80001898:	8ad2                	mv	s5,s4
    8000189a:	85a6                	mv	a1,s1
    8000189c:	855e                	mv	a0,s7
    8000189e:	00001097          	auipc	ra,0x1
    800018a2:	36c080e7          	jalr	876(ra) # 80002c0a <cowalloc>
    800018a6:	02054963          	bltz	a0,800018d8 <copyout+0xa0>
    800018aa:	85a6                	mv	a1,s1
    800018ac:	855e                	mv	a0,s7
    800018ae:	00000097          	auipc	ra,0x0
    800018b2:	988080e7          	jalr	-1656(ra) # 80001236 <walkaddr>
    800018b6:	cd1d                	beqz	a0,800018f4 <copyout+0xbc>
    800018b8:	01948a33          	add	s4,s1,s9
    800018bc:	415a0933          	sub	s2,s4,s5
    800018c0:	fb29fae3          	bgeu	s3,s2,80001874 <copyout+0x3c>
    800018c4:	894e                	mv	s2,s3
    800018c6:	b77d                	j	80001874 <copyout+0x3c>
    800018c8:	4501                	li	a0,0
    800018ca:	a801                	j	800018da <copyout+0xa2>
    800018cc:	4501                	li	a0,0
    800018ce:	8082                	ret
    800018d0:	557d                	li	a0,-1
    800018d2:	a021                	j	800018da <copyout+0xa2>
    800018d4:	557d                	li	a0,-1
    800018d6:	a011                	j	800018da <copyout+0xa2>
    800018d8:	557d                	li	a0,-1
    800018da:	60e6                	ld	ra,88(sp)
    800018dc:	6446                	ld	s0,80(sp)
    800018de:	64a6                	ld	s1,72(sp)
    800018e0:	6906                	ld	s2,64(sp)
    800018e2:	79e2                	ld	s3,56(sp)
    800018e4:	7a42                	ld	s4,48(sp)
    800018e6:	7aa2                	ld	s5,40(sp)
    800018e8:	7b02                	ld	s6,32(sp)
    800018ea:	6be2                	ld	s7,24(sp)
    800018ec:	6c42                	ld	s8,16(sp)
    800018ee:	6ca2                	ld	s9,8(sp)
    800018f0:	6125                	addi	sp,sp,96
    800018f2:	8082                	ret
    800018f4:	557d                	li	a0,-1
    800018f6:	b7d5                	j	800018da <copyout+0xa2>

00000000800018f8 <copyin>:
    800018f8:	c6bd                	beqz	a3,80001966 <copyin+0x6e>
    800018fa:	715d                	addi	sp,sp,-80
    800018fc:	e486                	sd	ra,72(sp)
    800018fe:	e0a2                	sd	s0,64(sp)
    80001900:	fc26                	sd	s1,56(sp)
    80001902:	f84a                	sd	s2,48(sp)
    80001904:	f44e                	sd	s3,40(sp)
    80001906:	f052                	sd	s4,32(sp)
    80001908:	ec56                	sd	s5,24(sp)
    8000190a:	e85a                	sd	s6,16(sp)
    8000190c:	e45e                	sd	s7,8(sp)
    8000190e:	e062                	sd	s8,0(sp)
    80001910:	0880                	addi	s0,sp,80
    80001912:	8b2a                	mv	s6,a0
    80001914:	8a2e                	mv	s4,a1
    80001916:	8c32                	mv	s8,a2
    80001918:	89b6                	mv	s3,a3
    8000191a:	7bfd                	lui	s7,0xfffff
    8000191c:	6a85                	lui	s5,0x1
    8000191e:	a015                	j	80001942 <copyin+0x4a>
    80001920:	9562                	add	a0,a0,s8
    80001922:	0004861b          	sext.w	a2,s1
    80001926:	412505b3          	sub	a1,a0,s2
    8000192a:	8552                	mv	a0,s4
    8000192c:	fffff097          	auipc	ra,0xfffff
    80001930:	5d8080e7          	jalr	1496(ra) # 80000f04 <memmove>
    80001934:	409989b3          	sub	s3,s3,s1
    80001938:	9a26                	add	s4,s4,s1
    8000193a:	01590c33          	add	s8,s2,s5
    8000193e:	02098263          	beqz	s3,80001962 <copyin+0x6a>
    80001942:	017c7933          	and	s2,s8,s7
    80001946:	85ca                	mv	a1,s2
    80001948:	855a                	mv	a0,s6
    8000194a:	00000097          	auipc	ra,0x0
    8000194e:	8ec080e7          	jalr	-1812(ra) # 80001236 <walkaddr>
    80001952:	cd01                	beqz	a0,8000196a <copyin+0x72>
    80001954:	418904b3          	sub	s1,s2,s8
    80001958:	94d6                	add	s1,s1,s5
    8000195a:	fc99f3e3          	bgeu	s3,s1,80001920 <copyin+0x28>
    8000195e:	84ce                	mv	s1,s3
    80001960:	b7c1                	j	80001920 <copyin+0x28>
    80001962:	4501                	li	a0,0
    80001964:	a021                	j	8000196c <copyin+0x74>
    80001966:	4501                	li	a0,0
    80001968:	8082                	ret
    8000196a:	557d                	li	a0,-1
    8000196c:	60a6                	ld	ra,72(sp)
    8000196e:	6406                	ld	s0,64(sp)
    80001970:	74e2                	ld	s1,56(sp)
    80001972:	7942                	ld	s2,48(sp)
    80001974:	79a2                	ld	s3,40(sp)
    80001976:	7a02                	ld	s4,32(sp)
    80001978:	6ae2                	ld	s5,24(sp)
    8000197a:	6b42                	ld	s6,16(sp)
    8000197c:	6ba2                	ld	s7,8(sp)
    8000197e:	6c02                	ld	s8,0(sp)
    80001980:	6161                	addi	sp,sp,80
    80001982:	8082                	ret

0000000080001984 <copyinstr>:
    80001984:	c6c5                	beqz	a3,80001a2c <copyinstr+0xa8>
    80001986:	715d                	addi	sp,sp,-80
    80001988:	e486                	sd	ra,72(sp)
    8000198a:	e0a2                	sd	s0,64(sp)
    8000198c:	fc26                	sd	s1,56(sp)
    8000198e:	f84a                	sd	s2,48(sp)
    80001990:	f44e                	sd	s3,40(sp)
    80001992:	f052                	sd	s4,32(sp)
    80001994:	ec56                	sd	s5,24(sp)
    80001996:	e85a                	sd	s6,16(sp)
    80001998:	e45e                	sd	s7,8(sp)
    8000199a:	0880                	addi	s0,sp,80
    8000199c:	8a2a                	mv	s4,a0
    8000199e:	8b2e                	mv	s6,a1
    800019a0:	8bb2                	mv	s7,a2
    800019a2:	84b6                	mv	s1,a3
    800019a4:	7afd                	lui	s5,0xfffff
    800019a6:	6985                	lui	s3,0x1
    800019a8:	a035                	j	800019d4 <copyinstr+0x50>
    800019aa:	00078023          	sb	zero,0(a5) # 1000 <_entry-0x7ffff000>
    800019ae:	4785                	li	a5,1
    800019b0:	0017b793          	seqz	a5,a5
    800019b4:	40f00533          	neg	a0,a5
    800019b8:	60a6                	ld	ra,72(sp)
    800019ba:	6406                	ld	s0,64(sp)
    800019bc:	74e2                	ld	s1,56(sp)
    800019be:	7942                	ld	s2,48(sp)
    800019c0:	79a2                	ld	s3,40(sp)
    800019c2:	7a02                	ld	s4,32(sp)
    800019c4:	6ae2                	ld	s5,24(sp)
    800019c6:	6b42                	ld	s6,16(sp)
    800019c8:	6ba2                	ld	s7,8(sp)
    800019ca:	6161                	addi	sp,sp,80
    800019cc:	8082                	ret
    800019ce:	01390bb3          	add	s7,s2,s3
    800019d2:	c8a9                	beqz	s1,80001a24 <copyinstr+0xa0>
    800019d4:	015bf933          	and	s2,s7,s5
    800019d8:	85ca                	mv	a1,s2
    800019da:	8552                	mv	a0,s4
    800019dc:	00000097          	auipc	ra,0x0
    800019e0:	85a080e7          	jalr	-1958(ra) # 80001236 <walkaddr>
    800019e4:	c131                	beqz	a0,80001a28 <copyinstr+0xa4>
    800019e6:	41790833          	sub	a6,s2,s7
    800019ea:	984e                	add	a6,a6,s3
    800019ec:	0104f363          	bgeu	s1,a6,800019f2 <copyinstr+0x6e>
    800019f0:	8826                	mv	a6,s1
    800019f2:	955e                	add	a0,a0,s7
    800019f4:	41250533          	sub	a0,a0,s2
    800019f8:	fc080be3          	beqz	a6,800019ce <copyinstr+0x4a>
    800019fc:	985a                	add	a6,a6,s6
    800019fe:	87da                	mv	a5,s6
    80001a00:	41650633          	sub	a2,a0,s6
    80001a04:	14fd                	addi	s1,s1,-1
    80001a06:	9b26                	add	s6,s6,s1
    80001a08:	00f60733          	add	a4,a2,a5
    80001a0c:	00074703          	lbu	a4,0(a4)
    80001a10:	df49                	beqz	a4,800019aa <copyinstr+0x26>
    80001a12:	00e78023          	sb	a4,0(a5)
    80001a16:	40fb04b3          	sub	s1,s6,a5
    80001a1a:	0785                	addi	a5,a5,1
    80001a1c:	ff0796e3          	bne	a5,a6,80001a08 <copyinstr+0x84>
    80001a20:	8b42                	mv	s6,a6
    80001a22:	b775                	j	800019ce <copyinstr+0x4a>
    80001a24:	4781                	li	a5,0
    80001a26:	b769                	j	800019b0 <copyinstr+0x2c>
    80001a28:	557d                	li	a0,-1
    80001a2a:	b779                	j	800019b8 <copyinstr+0x34>
    80001a2c:	4781                	li	a5,0
    80001a2e:	0017b793          	seqz	a5,a5
    80001a32:	40f00533          	neg	a0,a5
    80001a36:	8082                	ret

0000000080001a38 <calculateDynamicPriority>:
    80001a38:	1141                	addi	sp,sp,-16
    80001a3a:	e422                	sd	s0,8(sp)
    80001a3c:	0800                	addi	s0,sp,16
    80001a3e:	4795                	li	a5,5
    80001a40:	1cf52023          	sw	a5,448(a0)
    80001a44:	1b052783          	lw	a5,432(a0)
    80001a48:	e791                	bnez	a5,80001a54 <calculateDynamicPriority+0x1c>
    80001a4a:	1a852783          	lw	a5,424(a0)
    80001a4e:	e399                	bnez	a5,80001a54 <calculateDynamicPriority+0x1c>
    80001a50:	1c052023          	sw	zero,448(a0)
    80001a54:	1b852783          	lw	a5,440(a0)
    80001a58:	2795                	addiw	a5,a5,5
    80001a5a:	1c052503          	lw	a0,448(a0)
    80001a5e:	40a7853b          	subw	a0,a5,a0
    80001a62:	0005079b          	sext.w	a5,a0
    80001a66:	fff7c793          	not	a5,a5
    80001a6a:	97fd                	srai	a5,a5,0x3f
    80001a6c:	8d7d                	and	a0,a0,a5
    80001a6e:	0005071b          	sext.w	a4,a0
    80001a72:	06400793          	li	a5,100
    80001a76:	00e7d463          	bge	a5,a4,80001a7e <calculateDynamicPriority+0x46>
    80001a7a:	06400513          	li	a0,100
    80001a7e:	2501                	sext.w	a0,a0
    80001a80:	6422                	ld	s0,8(sp)
    80001a82:	0141                	addi	sp,sp,16
    80001a84:	8082                	ret

0000000080001a86 <set_priority>:
    80001a86:	7139                	addi	sp,sp,-64
    80001a88:	fc06                	sd	ra,56(sp)
    80001a8a:	f822                	sd	s0,48(sp)
    80001a8c:	f426                	sd	s1,40(sp)
    80001a8e:	f04a                	sd	s2,32(sp)
    80001a90:	ec4e                	sd	s3,24(sp)
    80001a92:	e852                	sd	s4,16(sp)
    80001a94:	e456                	sd	s5,8(sp)
    80001a96:	0080                	addi	s0,sp,64
    80001a98:	89ae                	mv	s3,a1
    80001a9a:	8aaa                	mv	s5,a0
    80001a9c:	06400793          	li	a5,100
    80001aa0:	00670497          	auipc	s1,0x670
    80001aa4:	84848493          	addi	s1,s1,-1976 # 806712e8 <proc>
    80001aa8:	00677a17          	auipc	s4,0x677
    80001aac:	440a0a13          	addi	s4,s4,1088 # 80678ee8 <tickslock>
    80001ab0:	02a7e763          	bltu	a5,a0,80001ade <set_priority+0x58>
    80001ab4:	00848913          	addi	s2,s1,8
    80001ab8:	854a                	mv	a0,s2
    80001aba:	fffff097          	auipc	ra,0xfffff
    80001abe:	2ee080e7          	jalr	750(ra) # 80000da8 <acquire>
    80001ac2:	5c9c                	lw	a5,56(s1)
    80001ac4:	03378763          	beq	a5,s3,80001af2 <set_priority+0x6c>
    80001ac8:	854a                	mv	a0,s2
    80001aca:	fffff097          	auipc	ra,0xfffff
    80001ace:	392080e7          	jalr	914(ra) # 80000e5c <release>
    80001ad2:	1f048493          	addi	s1,s1,496
    80001ad6:	fd449fe3          	bne	s1,s4,80001ab4 <set_priority+0x2e>
    80001ada:	59fd                	li	s3,-1
    80001adc:	a881                	j	80001b2c <set_priority+0xa6>
    80001ade:	00006517          	auipc	a0,0x6
    80001ae2:	72a50513          	addi	a0,a0,1834 # 80008208 <digits+0x1c8>
    80001ae6:	fffff097          	auipc	ra,0xfffff
    80001aea:	aa8080e7          	jalr	-1368(ra) # 8000058e <printf>
    80001aee:	59fd                	li	s3,-1
    80001af0:	a835                	j	80001b2c <set_priority+0xa6>
    80001af2:	854a                	mv	a0,s2
    80001af4:	fffff097          	auipc	ra,0xfffff
    80001af8:	368080e7          	jalr	872(ra) # 80000e5c <release>
    80001afc:	854a                	mv	a0,s2
    80001afe:	fffff097          	auipc	ra,0xfffff
    80001b02:	2aa080e7          	jalr	682(ra) # 80000da8 <acquire>
    80001b06:	1b84a983          	lw	s3,440(s1)
    80001b0a:	1b54ac23          	sw	s5,440(s1)
    80001b0e:	4795                	li	a5,5
    80001b10:	1cf4a023          	sw	a5,448(s1)
    80001b14:	8526                	mv	a0,s1
    80001b16:	00000097          	auipc	ra,0x0
    80001b1a:	f22080e7          	jalr	-222(ra) # 80001a38 <calculateDynamicPriority>
    80001b1e:	1aa4ae23          	sw	a0,444(s1)
    80001b22:	854a                	mv	a0,s2
    80001b24:	fffff097          	auipc	ra,0xfffff
    80001b28:	338080e7          	jalr	824(ra) # 80000e5c <release>
    80001b2c:	854e                	mv	a0,s3
    80001b2e:	70e2                	ld	ra,56(sp)
    80001b30:	7442                	ld	s0,48(sp)
    80001b32:	74a2                	ld	s1,40(sp)
    80001b34:	7902                	ld	s2,32(sp)
    80001b36:	69e2                	ld	s3,24(sp)
    80001b38:	6a42                	ld	s4,16(sp)
    80001b3a:	6aa2                	ld	s5,8(sp)
    80001b3c:	6121                	addi	sp,sp,64
    80001b3e:	8082                	ret

0000000080001b40 <proc_mapstacks>:
    80001b40:	7139                	addi	sp,sp,-64
    80001b42:	fc06                	sd	ra,56(sp)
    80001b44:	f822                	sd	s0,48(sp)
    80001b46:	f426                	sd	s1,40(sp)
    80001b48:	f04a                	sd	s2,32(sp)
    80001b4a:	ec4e                	sd	s3,24(sp)
    80001b4c:	e852                	sd	s4,16(sp)
    80001b4e:	e456                	sd	s5,8(sp)
    80001b50:	e05a                	sd	s6,0(sp)
    80001b52:	0080                	addi	s0,sp,64
    80001b54:	89aa                	mv	s3,a0
    80001b56:	0066f497          	auipc	s1,0x66f
    80001b5a:	79248493          	addi	s1,s1,1938 # 806712e8 <proc>
    80001b5e:	8b26                	mv	s6,s1
    80001b60:	00006a97          	auipc	s5,0x6
    80001b64:	4a0a8a93          	addi	s5,s5,1184 # 80008000 <etext>
    80001b68:	04000937          	lui	s2,0x4000
    80001b6c:	197d                	addi	s2,s2,-1
    80001b6e:	0932                	slli	s2,s2,0xc
    80001b70:	00677a17          	auipc	s4,0x677
    80001b74:	378a0a13          	addi	s4,s4,888 # 80678ee8 <tickslock>
    80001b78:	fffff097          	auipc	ra,0xfffff
    80001b7c:	0fc080e7          	jalr	252(ra) # 80000c74 <kalloc>
    80001b80:	862a                	mv	a2,a0
    80001b82:	c131                	beqz	a0,80001bc6 <proc_mapstacks+0x86>
    80001b84:	416485b3          	sub	a1,s1,s6
    80001b88:	8591                	srai	a1,a1,0x4
    80001b8a:	000ab783          	ld	a5,0(s5)
    80001b8e:	02f585b3          	mul	a1,a1,a5
    80001b92:	2585                	addiw	a1,a1,1
    80001b94:	00d5959b          	slliw	a1,a1,0xd
    80001b98:	4719                	li	a4,6
    80001b9a:	6685                	lui	a3,0x1
    80001b9c:	40b905b3          	sub	a1,s2,a1
    80001ba0:	854e                	mv	a0,s3
    80001ba2:	fffff097          	auipc	ra,0xfffff
    80001ba6:	776080e7          	jalr	1910(ra) # 80001318 <kvmmap>
    80001baa:	1f048493          	addi	s1,s1,496
    80001bae:	fd4495e3          	bne	s1,s4,80001b78 <proc_mapstacks+0x38>
    80001bb2:	70e2                	ld	ra,56(sp)
    80001bb4:	7442                	ld	s0,48(sp)
    80001bb6:	74a2                	ld	s1,40(sp)
    80001bb8:	7902                	ld	s2,32(sp)
    80001bba:	69e2                	ld	s3,24(sp)
    80001bbc:	6a42                	ld	s4,16(sp)
    80001bbe:	6aa2                	ld	s5,8(sp)
    80001bc0:	6b02                	ld	s6,0(sp)
    80001bc2:	6121                	addi	sp,sp,64
    80001bc4:	8082                	ret
    80001bc6:	00006517          	auipc	a0,0x6
    80001bca:	65a50513          	addi	a0,a0,1626 # 80008220 <digits+0x1e0>
    80001bce:	fffff097          	auipc	ra,0xfffff
    80001bd2:	976080e7          	jalr	-1674(ra) # 80000544 <panic>

0000000080001bd6 <procinit>:
    80001bd6:	7139                	addi	sp,sp,-64
    80001bd8:	fc06                	sd	ra,56(sp)
    80001bda:	f822                	sd	s0,48(sp)
    80001bdc:	f426                	sd	s1,40(sp)
    80001bde:	f04a                	sd	s2,32(sp)
    80001be0:	ec4e                	sd	s3,24(sp)
    80001be2:	e852                	sd	s4,16(sp)
    80001be4:	e456                	sd	s5,8(sp)
    80001be6:	e05a                	sd	s6,0(sp)
    80001be8:	0080                	addi	s0,sp,64
    80001bea:	00006597          	auipc	a1,0x6
    80001bee:	63e58593          	addi	a1,a1,1598 # 80008228 <digits+0x1e8>
    80001bf2:	0066f517          	auipc	a0,0x66f
    80001bf6:	2c650513          	addi	a0,a0,710 # 80670eb8 <pid_lock>
    80001bfa:	fffff097          	auipc	ra,0xfffff
    80001bfe:	11e080e7          	jalr	286(ra) # 80000d18 <initlock>
    80001c02:	00006597          	auipc	a1,0x6
    80001c06:	62e58593          	addi	a1,a1,1582 # 80008230 <digits+0x1f0>
    80001c0a:	0066f517          	auipc	a0,0x66f
    80001c0e:	2c650513          	addi	a0,a0,710 # 80670ed0 <wait_lock>
    80001c12:	fffff097          	auipc	ra,0xfffff
    80001c16:	106080e7          	jalr	262(ra) # 80000d18 <initlock>
    80001c1a:	0066f497          	auipc	s1,0x66f
    80001c1e:	6ce48493          	addi	s1,s1,1742 # 806712e8 <proc>
    80001c22:	00006b17          	auipc	s6,0x6
    80001c26:	61eb0b13          	addi	s6,s6,1566 # 80008240 <digits+0x200>
    80001c2a:	8aa6                	mv	s5,s1
    80001c2c:	00006a17          	auipc	s4,0x6
    80001c30:	3d4a0a13          	addi	s4,s4,980 # 80008000 <etext>
    80001c34:	04000937          	lui	s2,0x4000
    80001c38:	197d                	addi	s2,s2,-1
    80001c3a:	0932                	slli	s2,s2,0xc
    80001c3c:	00677997          	auipc	s3,0x677
    80001c40:	2ac98993          	addi	s3,s3,684 # 80678ee8 <tickslock>
    80001c44:	85da                	mv	a1,s6
    80001c46:	00848513          	addi	a0,s1,8
    80001c4a:	fffff097          	auipc	ra,0xfffff
    80001c4e:	0ce080e7          	jalr	206(ra) # 80000d18 <initlock>
    80001c52:	0204a023          	sw	zero,32(s1)
    80001c56:	415487b3          	sub	a5,s1,s5
    80001c5a:	8791                	srai	a5,a5,0x4
    80001c5c:	000a3703          	ld	a4,0(s4)
    80001c60:	02e787b3          	mul	a5,a5,a4
    80001c64:	2785                	addiw	a5,a5,1
    80001c66:	00d7979b          	slliw	a5,a5,0xd
    80001c6a:	40f907b3          	sub	a5,s2,a5
    80001c6e:	e4bc                	sd	a5,72(s1)
    80001c70:	1f048493          	addi	s1,s1,496
    80001c74:	fd3498e3          	bne	s1,s3,80001c44 <procinit+0x6e>
    80001c78:	70e2                	ld	ra,56(sp)
    80001c7a:	7442                	ld	s0,48(sp)
    80001c7c:	74a2                	ld	s1,40(sp)
    80001c7e:	7902                	ld	s2,32(sp)
    80001c80:	69e2                	ld	s3,24(sp)
    80001c82:	6a42                	ld	s4,16(sp)
    80001c84:	6aa2                	ld	s5,8(sp)
    80001c86:	6b02                	ld	s6,0(sp)
    80001c88:	6121                	addi	sp,sp,64
    80001c8a:	8082                	ret

0000000080001c8c <cpuid>:
    80001c8c:	1141                	addi	sp,sp,-16
    80001c8e:	e422                	sd	s0,8(sp)
    80001c90:	0800                	addi	s0,sp,16
    80001c92:	8512                	mv	a0,tp
    80001c94:	2501                	sext.w	a0,a0
    80001c96:	6422                	ld	s0,8(sp)
    80001c98:	0141                	addi	sp,sp,16
    80001c9a:	8082                	ret

0000000080001c9c <mycpu>:
    80001c9c:	1141                	addi	sp,sp,-16
    80001c9e:	e422                	sd	s0,8(sp)
    80001ca0:	0800                	addi	s0,sp,16
    80001ca2:	8792                	mv	a5,tp
    80001ca4:	2781                	sext.w	a5,a5
    80001ca6:	079e                	slli	a5,a5,0x7
    80001ca8:	0066f517          	auipc	a0,0x66f
    80001cac:	24050513          	addi	a0,a0,576 # 80670ee8 <cpus>
    80001cb0:	953e                	add	a0,a0,a5
    80001cb2:	6422                	ld	s0,8(sp)
    80001cb4:	0141                	addi	sp,sp,16
    80001cb6:	8082                	ret

0000000080001cb8 <myproc>:
    80001cb8:	1101                	addi	sp,sp,-32
    80001cba:	ec06                	sd	ra,24(sp)
    80001cbc:	e822                	sd	s0,16(sp)
    80001cbe:	e426                	sd	s1,8(sp)
    80001cc0:	1000                	addi	s0,sp,32
    80001cc2:	fffff097          	auipc	ra,0xfffff
    80001cc6:	09a080e7          	jalr	154(ra) # 80000d5c <push_off>
    80001cca:	8792                	mv	a5,tp
    80001ccc:	2781                	sext.w	a5,a5
    80001cce:	079e                	slli	a5,a5,0x7
    80001cd0:	0066f717          	auipc	a4,0x66f
    80001cd4:	1e870713          	addi	a4,a4,488 # 80670eb8 <pid_lock>
    80001cd8:	97ba                	add	a5,a5,a4
    80001cda:	7b84                	ld	s1,48(a5)
    80001cdc:	fffff097          	auipc	ra,0xfffff
    80001ce0:	120080e7          	jalr	288(ra) # 80000dfc <pop_off>
    80001ce4:	8526                	mv	a0,s1
    80001ce6:	60e2                	ld	ra,24(sp)
    80001ce8:	6442                	ld	s0,16(sp)
    80001cea:	64a2                	ld	s1,8(sp)
    80001cec:	6105                	addi	sp,sp,32
    80001cee:	8082                	ret

0000000080001cf0 <forkret>:
    80001cf0:	1141                	addi	sp,sp,-16
    80001cf2:	e406                	sd	ra,8(sp)
    80001cf4:	e022                	sd	s0,0(sp)
    80001cf6:	0800                	addi	s0,sp,16
    80001cf8:	00000097          	auipc	ra,0x0
    80001cfc:	fc0080e7          	jalr	-64(ra) # 80001cb8 <myproc>
    80001d00:	0521                	addi	a0,a0,8
    80001d02:	fffff097          	auipc	ra,0xfffff
    80001d06:	15a080e7          	jalr	346(ra) # 80000e5c <release>
    80001d0a:	00007797          	auipc	a5,0x7
    80001d0e:	cc67a783          	lw	a5,-826(a5) # 800089d0 <first.2468>
    80001d12:	eb89                	bnez	a5,80001d24 <forkret+0x34>
    80001d14:	00001097          	auipc	ra,0x1
    80001d18:	f94080e7          	jalr	-108(ra) # 80002ca8 <usertrapret>
    80001d1c:	60a2                	ld	ra,8(sp)
    80001d1e:	6402                	ld	s0,0(sp)
    80001d20:	0141                	addi	sp,sp,16
    80001d22:	8082                	ret
    80001d24:	00007797          	auipc	a5,0x7
    80001d28:	ca07a623          	sw	zero,-852(a5) # 800089d0 <first.2468>
    80001d2c:	4505                	li	a0,1
    80001d2e:	00002097          	auipc	ra,0x2
    80001d32:	09c080e7          	jalr	156(ra) # 80003dca <fsinit>
    80001d36:	bff9                	j	80001d14 <forkret+0x24>

0000000080001d38 <allocpid>:
    80001d38:	1101                	addi	sp,sp,-32
    80001d3a:	ec06                	sd	ra,24(sp)
    80001d3c:	e822                	sd	s0,16(sp)
    80001d3e:	e426                	sd	s1,8(sp)
    80001d40:	e04a                	sd	s2,0(sp)
    80001d42:	1000                	addi	s0,sp,32
    80001d44:	0066f917          	auipc	s2,0x66f
    80001d48:	17490913          	addi	s2,s2,372 # 80670eb8 <pid_lock>
    80001d4c:	854a                	mv	a0,s2
    80001d4e:	fffff097          	auipc	ra,0xfffff
    80001d52:	05a080e7          	jalr	90(ra) # 80000da8 <acquire>
    80001d56:	00007797          	auipc	a5,0x7
    80001d5a:	c7e78793          	addi	a5,a5,-898 # 800089d4 <nextpid>
    80001d5e:	4384                	lw	s1,0(a5)
    80001d60:	0014871b          	addiw	a4,s1,1
    80001d64:	c398                	sw	a4,0(a5)
    80001d66:	854a                	mv	a0,s2
    80001d68:	fffff097          	auipc	ra,0xfffff
    80001d6c:	0f4080e7          	jalr	244(ra) # 80000e5c <release>
    80001d70:	8526                	mv	a0,s1
    80001d72:	60e2                	ld	ra,24(sp)
    80001d74:	6442                	ld	s0,16(sp)
    80001d76:	64a2                	ld	s1,8(sp)
    80001d78:	6902                	ld	s2,0(sp)
    80001d7a:	6105                	addi	sp,sp,32
    80001d7c:	8082                	ret

0000000080001d7e <proc_pagetable>:
    80001d7e:	1101                	addi	sp,sp,-32
    80001d80:	ec06                	sd	ra,24(sp)
    80001d82:	e822                	sd	s0,16(sp)
    80001d84:	e426                	sd	s1,8(sp)
    80001d86:	e04a                	sd	s2,0(sp)
    80001d88:	1000                	addi	s0,sp,32
    80001d8a:	892a                	mv	s2,a0
    80001d8c:	fffff097          	auipc	ra,0xfffff
    80001d90:	776080e7          	jalr	1910(ra) # 80001502 <uvmcreate>
    80001d94:	84aa                	mv	s1,a0
    80001d96:	c121                	beqz	a0,80001dd6 <proc_pagetable+0x58>
    80001d98:	4729                	li	a4,10
    80001d9a:	00005697          	auipc	a3,0x5
    80001d9e:	26668693          	addi	a3,a3,614 # 80007000 <_trampoline>
    80001da2:	6605                	lui	a2,0x1
    80001da4:	040005b7          	lui	a1,0x4000
    80001da8:	15fd                	addi	a1,a1,-1
    80001daa:	05b2                	slli	a1,a1,0xc
    80001dac:	fffff097          	auipc	ra,0xfffff
    80001db0:	4cc080e7          	jalr	1228(ra) # 80001278 <mappages>
    80001db4:	02054863          	bltz	a0,80001de4 <proc_pagetable+0x66>
    80001db8:	4719                	li	a4,6
    80001dba:	06093683          	ld	a3,96(s2)
    80001dbe:	6605                	lui	a2,0x1
    80001dc0:	020005b7          	lui	a1,0x2000
    80001dc4:	15fd                	addi	a1,a1,-1
    80001dc6:	05b6                	slli	a1,a1,0xd
    80001dc8:	8526                	mv	a0,s1
    80001dca:	fffff097          	auipc	ra,0xfffff
    80001dce:	4ae080e7          	jalr	1198(ra) # 80001278 <mappages>
    80001dd2:	02054163          	bltz	a0,80001df4 <proc_pagetable+0x76>
    80001dd6:	8526                	mv	a0,s1
    80001dd8:	60e2                	ld	ra,24(sp)
    80001dda:	6442                	ld	s0,16(sp)
    80001ddc:	64a2                	ld	s1,8(sp)
    80001dde:	6902                	ld	s2,0(sp)
    80001de0:	6105                	addi	sp,sp,32
    80001de2:	8082                	ret
    80001de4:	4581                	li	a1,0
    80001de6:	8526                	mv	a0,s1
    80001de8:	00000097          	auipc	ra,0x0
    80001dec:	91e080e7          	jalr	-1762(ra) # 80001706 <uvmfree>
    80001df0:	4481                	li	s1,0
    80001df2:	b7d5                	j	80001dd6 <proc_pagetable+0x58>
    80001df4:	4681                	li	a3,0
    80001df6:	4605                	li	a2,1
    80001df8:	040005b7          	lui	a1,0x4000
    80001dfc:	15fd                	addi	a1,a1,-1
    80001dfe:	05b2                	slli	a1,a1,0xc
    80001e00:	8526                	mv	a0,s1
    80001e02:	fffff097          	auipc	ra,0xfffff
    80001e06:	63c080e7          	jalr	1596(ra) # 8000143e <uvmunmap>
    80001e0a:	4581                	li	a1,0
    80001e0c:	8526                	mv	a0,s1
    80001e0e:	00000097          	auipc	ra,0x0
    80001e12:	8f8080e7          	jalr	-1800(ra) # 80001706 <uvmfree>
    80001e16:	4481                	li	s1,0
    80001e18:	bf7d                	j	80001dd6 <proc_pagetable+0x58>

0000000080001e1a <proc_freepagetable>:
    80001e1a:	1101                	addi	sp,sp,-32
    80001e1c:	ec06                	sd	ra,24(sp)
    80001e1e:	e822                	sd	s0,16(sp)
    80001e20:	e426                	sd	s1,8(sp)
    80001e22:	e04a                	sd	s2,0(sp)
    80001e24:	1000                	addi	s0,sp,32
    80001e26:	84aa                	mv	s1,a0
    80001e28:	892e                	mv	s2,a1
    80001e2a:	4681                	li	a3,0
    80001e2c:	4605                	li	a2,1
    80001e2e:	040005b7          	lui	a1,0x4000
    80001e32:	15fd                	addi	a1,a1,-1
    80001e34:	05b2                	slli	a1,a1,0xc
    80001e36:	fffff097          	auipc	ra,0xfffff
    80001e3a:	608080e7          	jalr	1544(ra) # 8000143e <uvmunmap>
    80001e3e:	4681                	li	a3,0
    80001e40:	4605                	li	a2,1
    80001e42:	020005b7          	lui	a1,0x2000
    80001e46:	15fd                	addi	a1,a1,-1
    80001e48:	05b6                	slli	a1,a1,0xd
    80001e4a:	8526                	mv	a0,s1
    80001e4c:	fffff097          	auipc	ra,0xfffff
    80001e50:	5f2080e7          	jalr	1522(ra) # 8000143e <uvmunmap>
    80001e54:	85ca                	mv	a1,s2
    80001e56:	8526                	mv	a0,s1
    80001e58:	00000097          	auipc	ra,0x0
    80001e5c:	8ae080e7          	jalr	-1874(ra) # 80001706 <uvmfree>
    80001e60:	60e2                	ld	ra,24(sp)
    80001e62:	6442                	ld	s0,16(sp)
    80001e64:	64a2                	ld	s1,8(sp)
    80001e66:	6902                	ld	s2,0(sp)
    80001e68:	6105                	addi	sp,sp,32
    80001e6a:	8082                	ret

0000000080001e6c <freeproc>:
    80001e6c:	1101                	addi	sp,sp,-32
    80001e6e:	ec06                	sd	ra,24(sp)
    80001e70:	e822                	sd	s0,16(sp)
    80001e72:	e426                	sd	s1,8(sp)
    80001e74:	1000                	addi	s0,sp,32
    80001e76:	84aa                	mv	s1,a0
    80001e78:	7128                	ld	a0,96(a0)
    80001e7a:	c509                	beqz	a0,80001e84 <freeproc+0x18>
    80001e7c:	fffff097          	auipc	ra,0xfffff
    80001e80:	c52080e7          	jalr	-942(ra) # 80000ace <kfree>
    80001e84:	0604b023          	sd	zero,96(s1)
    80001e88:	6ca8                	ld	a0,88(s1)
    80001e8a:	c511                	beqz	a0,80001e96 <freeproc+0x2a>
    80001e8c:	68ac                	ld	a1,80(s1)
    80001e8e:	00000097          	auipc	ra,0x0
    80001e92:	f8c080e7          	jalr	-116(ra) # 80001e1a <proc_freepagetable>
    80001e96:	0404bc23          	sd	zero,88(s1)
    80001e9a:	0404b823          	sd	zero,80(s1)
    80001e9e:	0204ac23          	sw	zero,56(s1)
    80001ea2:	0404b023          	sd	zero,64(s1)
    80001ea6:	16048023          	sb	zero,352(s1)
    80001eaa:	0204b423          	sd	zero,40(s1)
    80001eae:	0204a823          	sw	zero,48(s1)
    80001eb2:	0204aa23          	sw	zero,52(s1)
    80001eb6:	0204a023          	sw	zero,32(s1)
    80001eba:	60e2                	ld	ra,24(sp)
    80001ebc:	6442                	ld	s0,16(sp)
    80001ebe:	64a2                	ld	s1,8(sp)
    80001ec0:	6105                	addi	sp,sp,32
    80001ec2:	8082                	ret

0000000080001ec4 <allocproc>:
    80001ec4:	7179                	addi	sp,sp,-48
    80001ec6:	f406                	sd	ra,40(sp)
    80001ec8:	f022                	sd	s0,32(sp)
    80001eca:	ec26                	sd	s1,24(sp)
    80001ecc:	e84a                	sd	s2,16(sp)
    80001ece:	e44e                	sd	s3,8(sp)
    80001ed0:	1800                	addi	s0,sp,48
    80001ed2:	0066f497          	auipc	s1,0x66f
    80001ed6:	41648493          	addi	s1,s1,1046 # 806712e8 <proc>
    80001eda:	00677997          	auipc	s3,0x677
    80001ede:	00e98993          	addi	s3,s3,14 # 80678ee8 <tickslock>
    80001ee2:	00848913          	addi	s2,s1,8
    80001ee6:	854a                	mv	a0,s2
    80001ee8:	fffff097          	auipc	ra,0xfffff
    80001eec:	ec0080e7          	jalr	-320(ra) # 80000da8 <acquire>
    80001ef0:	509c                	lw	a5,32(s1)
    80001ef2:	cf81                	beqz	a5,80001f0a <allocproc+0x46>
    80001ef4:	854a                	mv	a0,s2
    80001ef6:	fffff097          	auipc	ra,0xfffff
    80001efa:	f66080e7          	jalr	-154(ra) # 80000e5c <release>
    80001efe:	1f048493          	addi	s1,s1,496
    80001f02:	ff3490e3          	bne	s1,s3,80001ee2 <allocproc+0x1e>
    80001f06:	4481                	li	s1,0
    80001f08:	a041                	j	80001f88 <allocproc+0xc4>
    80001f0a:	00000097          	auipc	ra,0x0
    80001f0e:	e2e080e7          	jalr	-466(ra) # 80001d38 <allocpid>
    80001f12:	dc88                	sw	a0,56(s1)
    80001f14:	4785                	li	a5,1
    80001f16:	d09c                	sw	a5,32(s1)
    80001f18:	fffff097          	auipc	ra,0xfffff
    80001f1c:	d5c080e7          	jalr	-676(ra) # 80000c74 <kalloc>
    80001f20:	89aa                	mv	s3,a0
    80001f22:	f0a8                	sd	a0,96(s1)
    80001f24:	c935                	beqz	a0,80001f98 <allocproc+0xd4>
    80001f26:	8526                	mv	a0,s1
    80001f28:	00000097          	auipc	ra,0x0
    80001f2c:	e56080e7          	jalr	-426(ra) # 80001d7e <proc_pagetable>
    80001f30:	89aa                	mv	s3,a0
    80001f32:	eca8                	sd	a0,88(s1)
    80001f34:	cd35                	beqz	a0,80001fb0 <allocproc+0xec>
    80001f36:	07000613          	li	a2,112
    80001f3a:	4581                	li	a1,0
    80001f3c:	06848513          	addi	a0,s1,104
    80001f40:	fffff097          	auipc	ra,0xfffff
    80001f44:	f64080e7          	jalr	-156(ra) # 80000ea4 <memset>
    80001f48:	00000797          	auipc	a5,0x0
    80001f4c:	da878793          	addi	a5,a5,-600 # 80001cf0 <forkret>
    80001f50:	f4bc                	sd	a5,104(s1)
    80001f52:	64bc                	ld	a5,72(s1)
    80001f54:	6705                	lui	a4,0x1
    80001f56:	97ba                	add	a5,a5,a4
    80001f58:	f8bc                	sd	a5,112(s1)
    80001f5a:	00007797          	auipc	a5,0x7
    80001f5e:	cd67a783          	lw	a5,-810(a5) # 80008c30 <ticks>
    80001f62:	18f4ac23          	sw	a5,408(s1)
    80001f66:	03c00793          	li	a5,60
    80001f6a:	1af4ac23          	sw	a5,440(s1)
    80001f6e:	4795                	li	a5,5
    80001f70:	1cf4a023          	sw	a5,448(s1)
    80001f74:	1804ae23          	sw	zero,412(s1)
    80001f78:	1a04a023          	sw	zero,416(s1)
    80001f7c:	1a04a823          	sw	zero,432(s1)
    80001f80:	1a04a423          	sw	zero,424(s1)
    80001f84:	1a04a623          	sw	zero,428(s1)
    80001f88:	8526                	mv	a0,s1
    80001f8a:	70a2                	ld	ra,40(sp)
    80001f8c:	7402                	ld	s0,32(sp)
    80001f8e:	64e2                	ld	s1,24(sp)
    80001f90:	6942                	ld	s2,16(sp)
    80001f92:	69a2                	ld	s3,8(sp)
    80001f94:	6145                	addi	sp,sp,48
    80001f96:	8082                	ret
    80001f98:	8526                	mv	a0,s1
    80001f9a:	00000097          	auipc	ra,0x0
    80001f9e:	ed2080e7          	jalr	-302(ra) # 80001e6c <freeproc>
    80001fa2:	854a                	mv	a0,s2
    80001fa4:	fffff097          	auipc	ra,0xfffff
    80001fa8:	eb8080e7          	jalr	-328(ra) # 80000e5c <release>
    80001fac:	84ce                	mv	s1,s3
    80001fae:	bfe9                	j	80001f88 <allocproc+0xc4>
    80001fb0:	8526                	mv	a0,s1
    80001fb2:	00000097          	auipc	ra,0x0
    80001fb6:	eba080e7          	jalr	-326(ra) # 80001e6c <freeproc>
    80001fba:	854a                	mv	a0,s2
    80001fbc:	fffff097          	auipc	ra,0xfffff
    80001fc0:	ea0080e7          	jalr	-352(ra) # 80000e5c <release>
    80001fc4:	84ce                	mv	s1,s3
    80001fc6:	b7c9                	j	80001f88 <allocproc+0xc4>

0000000080001fc8 <userinit>:
    80001fc8:	1101                	addi	sp,sp,-32
    80001fca:	ec06                	sd	ra,24(sp)
    80001fcc:	e822                	sd	s0,16(sp)
    80001fce:	e426                	sd	s1,8(sp)
    80001fd0:	1000                	addi	s0,sp,32
    80001fd2:	00000097          	auipc	ra,0x0
    80001fd6:	ef2080e7          	jalr	-270(ra) # 80001ec4 <allocproc>
    80001fda:	84aa                	mv	s1,a0
    80001fdc:	00007797          	auipc	a5,0x7
    80001fe0:	c4a7b623          	sd	a0,-948(a5) # 80008c28 <initproc>
    80001fe4:	03400613          	li	a2,52
    80001fe8:	00007597          	auipc	a1,0x7
    80001fec:	9f858593          	addi	a1,a1,-1544 # 800089e0 <initcode>
    80001ff0:	6d28                	ld	a0,88(a0)
    80001ff2:	fffff097          	auipc	ra,0xfffff
    80001ff6:	53e080e7          	jalr	1342(ra) # 80001530 <uvmfirst>
    80001ffa:	6785                	lui	a5,0x1
    80001ffc:	e8bc                	sd	a5,80(s1)
    80001ffe:	70b8                	ld	a4,96(s1)
    80002000:	00073c23          	sd	zero,24(a4) # 1018 <_entry-0x7fffefe8>
    80002004:	70b8                	ld	a4,96(s1)
    80002006:	fb1c                	sd	a5,48(a4)
    80002008:	4641                	li	a2,16
    8000200a:	00006597          	auipc	a1,0x6
    8000200e:	23e58593          	addi	a1,a1,574 # 80008248 <digits+0x208>
    80002012:	16048513          	addi	a0,s1,352
    80002016:	fffff097          	auipc	ra,0xfffff
    8000201a:	fe0080e7          	jalr	-32(ra) # 80000ff6 <safestrcpy>
    8000201e:	00006517          	auipc	a0,0x6
    80002022:	23a50513          	addi	a0,a0,570 # 80008258 <digits+0x218>
    80002026:	00002097          	auipc	ra,0x2
    8000202a:	7c6080e7          	jalr	1990(ra) # 800047ec <namei>
    8000202e:	14a4bc23          	sd	a0,344(s1)
    80002032:	478d                	li	a5,3
    80002034:	d09c                	sw	a5,32(s1)
    80002036:	00848513          	addi	a0,s1,8
    8000203a:	fffff097          	auipc	ra,0xfffff
    8000203e:	e22080e7          	jalr	-478(ra) # 80000e5c <release>
    80002042:	60e2                	ld	ra,24(sp)
    80002044:	6442                	ld	s0,16(sp)
    80002046:	64a2                	ld	s1,8(sp)
    80002048:	6105                	addi	sp,sp,32
    8000204a:	8082                	ret

000000008000204c <growproc>:
    8000204c:	1101                	addi	sp,sp,-32
    8000204e:	ec06                	sd	ra,24(sp)
    80002050:	e822                	sd	s0,16(sp)
    80002052:	e426                	sd	s1,8(sp)
    80002054:	e04a                	sd	s2,0(sp)
    80002056:	1000                	addi	s0,sp,32
    80002058:	892a                	mv	s2,a0
    8000205a:	00000097          	auipc	ra,0x0
    8000205e:	c5e080e7          	jalr	-930(ra) # 80001cb8 <myproc>
    80002062:	84aa                	mv	s1,a0
    80002064:	692c                	ld	a1,80(a0)
    80002066:	01204c63          	bgtz	s2,8000207e <growproc+0x32>
    8000206a:	02094663          	bltz	s2,80002096 <growproc+0x4a>
    8000206e:	e8ac                	sd	a1,80(s1)
    80002070:	4501                	li	a0,0
    80002072:	60e2                	ld	ra,24(sp)
    80002074:	6442                	ld	s0,16(sp)
    80002076:	64a2                	ld	s1,8(sp)
    80002078:	6902                	ld	s2,0(sp)
    8000207a:	6105                	addi	sp,sp,32
    8000207c:	8082                	ret
    8000207e:	4691                	li	a3,4
    80002080:	00b90633          	add	a2,s2,a1
    80002084:	6d28                	ld	a0,88(a0)
    80002086:	fffff097          	auipc	ra,0xfffff
    8000208a:	564080e7          	jalr	1380(ra) # 800015ea <uvmalloc>
    8000208e:	85aa                	mv	a1,a0
    80002090:	fd79                	bnez	a0,8000206e <growproc+0x22>
    80002092:	557d                	li	a0,-1
    80002094:	bff9                	j	80002072 <growproc+0x26>
    80002096:	00b90633          	add	a2,s2,a1
    8000209a:	6d28                	ld	a0,88(a0)
    8000209c:	fffff097          	auipc	ra,0xfffff
    800020a0:	506080e7          	jalr	1286(ra) # 800015a2 <uvmdealloc>
    800020a4:	85aa                	mv	a1,a0
    800020a6:	b7e1                	j	8000206e <growproc+0x22>

00000000800020a8 <fork>:
    800020a8:	7139                	addi	sp,sp,-64
    800020aa:	fc06                	sd	ra,56(sp)
    800020ac:	f822                	sd	s0,48(sp)
    800020ae:	f426                	sd	s1,40(sp)
    800020b0:	f04a                	sd	s2,32(sp)
    800020b2:	ec4e                	sd	s3,24(sp)
    800020b4:	e852                	sd	s4,16(sp)
    800020b6:	e456                	sd	s5,8(sp)
    800020b8:	0080                	addi	s0,sp,64
    800020ba:	00000097          	auipc	ra,0x0
    800020be:	bfe080e7          	jalr	-1026(ra) # 80001cb8 <myproc>
    800020c2:	892a                	mv	s2,a0
    800020c4:	00000097          	auipc	ra,0x0
    800020c8:	e00080e7          	jalr	-512(ra) # 80001ec4 <allocproc>
    800020cc:	12050363          	beqz	a0,800021f2 <fork+0x14a>
    800020d0:	89aa                	mv	s3,a0
    800020d2:	05093603          	ld	a2,80(s2)
    800020d6:	6d2c                	ld	a1,88(a0)
    800020d8:	05893503          	ld	a0,88(s2)
    800020dc:	fffff097          	auipc	ra,0xfffff
    800020e0:	662080e7          	jalr	1634(ra) # 8000173e <uvmcopy>
    800020e4:	04054a63          	bltz	a0,80002138 <fork+0x90>
    800020e8:	00092783          	lw	a5,0(s2)
    800020ec:	00f9a023          	sw	a5,0(s3)
    800020f0:	05093783          	ld	a5,80(s2)
    800020f4:	04f9b823          	sd	a5,80(s3)
    800020f8:	06093683          	ld	a3,96(s2)
    800020fc:	87b6                	mv	a5,a3
    800020fe:	0609b703          	ld	a4,96(s3)
    80002102:	12068693          	addi	a3,a3,288
    80002106:	0007b803          	ld	a6,0(a5) # 1000 <_entry-0x7ffff000>
    8000210a:	6788                	ld	a0,8(a5)
    8000210c:	6b8c                	ld	a1,16(a5)
    8000210e:	6f90                	ld	a2,24(a5)
    80002110:	01073023          	sd	a6,0(a4)
    80002114:	e708                	sd	a0,8(a4)
    80002116:	eb0c                	sd	a1,16(a4)
    80002118:	ef10                	sd	a2,24(a4)
    8000211a:	02078793          	addi	a5,a5,32
    8000211e:	02070713          	addi	a4,a4,32
    80002122:	fed792e3          	bne	a5,a3,80002106 <fork+0x5e>
    80002126:	0609b783          	ld	a5,96(s3)
    8000212a:	0607b823          	sd	zero,112(a5)
    8000212e:	0d800493          	li	s1,216
    80002132:	15800a13          	li	s4,344
    80002136:	a805                	j	80002166 <fork+0xbe>
    80002138:	854e                	mv	a0,s3
    8000213a:	00000097          	auipc	ra,0x0
    8000213e:	d32080e7          	jalr	-718(ra) # 80001e6c <freeproc>
    80002142:	00898513          	addi	a0,s3,8
    80002146:	fffff097          	auipc	ra,0xfffff
    8000214a:	d16080e7          	jalr	-746(ra) # 80000e5c <release>
    8000214e:	5afd                	li	s5,-1
    80002150:	a079                	j	800021de <fork+0x136>
    80002152:	00003097          	auipc	ra,0x3
    80002156:	d30080e7          	jalr	-720(ra) # 80004e82 <filedup>
    8000215a:	009987b3          	add	a5,s3,s1
    8000215e:	e388                	sd	a0,0(a5)
    80002160:	04a1                	addi	s1,s1,8
    80002162:	01448763          	beq	s1,s4,80002170 <fork+0xc8>
    80002166:	009907b3          	add	a5,s2,s1
    8000216a:	6388                	ld	a0,0(a5)
    8000216c:	f17d                	bnez	a0,80002152 <fork+0xaa>
    8000216e:	bfcd                	j	80002160 <fork+0xb8>
    80002170:	15893503          	ld	a0,344(s2)
    80002174:	00002097          	auipc	ra,0x2
    80002178:	e94080e7          	jalr	-364(ra) # 80004008 <idup>
    8000217c:	14a9bc23          	sd	a0,344(s3)
    80002180:	4641                	li	a2,16
    80002182:	16090593          	addi	a1,s2,352
    80002186:	16098513          	addi	a0,s3,352
    8000218a:	fffff097          	auipc	ra,0xfffff
    8000218e:	e6c080e7          	jalr	-404(ra) # 80000ff6 <safestrcpy>
    80002192:	0389aa83          	lw	s5,56(s3)
    80002196:	00898493          	addi	s1,s3,8
    8000219a:	8526                	mv	a0,s1
    8000219c:	fffff097          	auipc	ra,0xfffff
    800021a0:	cc0080e7          	jalr	-832(ra) # 80000e5c <release>
    800021a4:	0066fa17          	auipc	s4,0x66f
    800021a8:	d2ca0a13          	addi	s4,s4,-724 # 80670ed0 <wait_lock>
    800021ac:	8552                	mv	a0,s4
    800021ae:	fffff097          	auipc	ra,0xfffff
    800021b2:	bfa080e7          	jalr	-1030(ra) # 80000da8 <acquire>
    800021b6:	0529b023          	sd	s2,64(s3)
    800021ba:	8552                	mv	a0,s4
    800021bc:	fffff097          	auipc	ra,0xfffff
    800021c0:	ca0080e7          	jalr	-864(ra) # 80000e5c <release>
    800021c4:	8526                	mv	a0,s1
    800021c6:	fffff097          	auipc	ra,0xfffff
    800021ca:	be2080e7          	jalr	-1054(ra) # 80000da8 <acquire>
    800021ce:	478d                	li	a5,3
    800021d0:	02f9a023          	sw	a5,32(s3)
    800021d4:	8526                	mv	a0,s1
    800021d6:	fffff097          	auipc	ra,0xfffff
    800021da:	c86080e7          	jalr	-890(ra) # 80000e5c <release>
    800021de:	8556                	mv	a0,s5
    800021e0:	70e2                	ld	ra,56(sp)
    800021e2:	7442                	ld	s0,48(sp)
    800021e4:	74a2                	ld	s1,40(sp)
    800021e6:	7902                	ld	s2,32(sp)
    800021e8:	69e2                	ld	s3,24(sp)
    800021ea:	6a42                	ld	s4,16(sp)
    800021ec:	6aa2                	ld	s5,8(sp)
    800021ee:	6121                	addi	sp,sp,64
    800021f0:	8082                	ret
    800021f2:	5afd                	li	s5,-1
    800021f4:	b7ed                	j	800021de <fork+0x136>

00000000800021f6 <upd_time>:
    800021f6:	7179                	addi	sp,sp,-48
    800021f8:	f406                	sd	ra,40(sp)
    800021fa:	f022                	sd	s0,32(sp)
    800021fc:	ec26                	sd	s1,24(sp)
    800021fe:	e84a                	sd	s2,16(sp)
    80002200:	e44e                	sd	s3,8(sp)
    80002202:	e052                	sd	s4,0(sp)
    80002204:	1800                	addi	s0,sp,48
    80002206:	0066f497          	auipc	s1,0x66f
    8000220a:	0ea48493          	addi	s1,s1,234 # 806712f0 <proc+0x8>
    8000220e:	00677a17          	auipc	s4,0x677
    80002212:	ce2a0a13          	addi	s4,s4,-798 # 80678ef0 <tickslock+0x8>
    80002216:	4991                	li	s3,4
    80002218:	a811                	j	8000222c <upd_time+0x36>
    8000221a:	854a                	mv	a0,s2
    8000221c:	fffff097          	auipc	ra,0xfffff
    80002220:	c40080e7          	jalr	-960(ra) # 80000e5c <release>
    80002224:	1f048493          	addi	s1,s1,496
    80002228:	03448663          	beq	s1,s4,80002254 <upd_time+0x5e>
    8000222c:	8926                	mv	s2,s1
    8000222e:	8526                	mv	a0,s1
    80002230:	fffff097          	auipc	ra,0xfffff
    80002234:	b78080e7          	jalr	-1160(ra) # 80000da8 <acquire>
    80002238:	4c9c                	lw	a5,24(s1)
    8000223a:	ff3790e3          	bne	a5,s3,8000221a <upd_time+0x24>
    8000223e:	1944a783          	lw	a5,404(s1)
    80002242:	2785                	addiw	a5,a5,1
    80002244:	18f4aa23          	sw	a5,404(s1)
    80002248:	1a84a783          	lw	a5,424(s1)
    8000224c:	2785                	addiw	a5,a5,1
    8000224e:	1af4a423          	sw	a5,424(s1)
    80002252:	b7e1                	j	8000221a <upd_time+0x24>
    80002254:	70a2                	ld	ra,40(sp)
    80002256:	7402                	ld	s0,32(sp)
    80002258:	64e2                	ld	s1,24(sp)
    8000225a:	6942                	ld	s2,16(sp)
    8000225c:	69a2                	ld	s3,8(sp)
    8000225e:	6a02                	ld	s4,0(sp)
    80002260:	6145                	addi	sp,sp,48
    80002262:	8082                	ret

0000000080002264 <scheduler>:
    80002264:	715d                	addi	sp,sp,-80
    80002266:	e486                	sd	ra,72(sp)
    80002268:	e0a2                	sd	s0,64(sp)
    8000226a:	fc26                	sd	s1,56(sp)
    8000226c:	f84a                	sd	s2,48(sp)
    8000226e:	f44e                	sd	s3,40(sp)
    80002270:	f052                	sd	s4,32(sp)
    80002272:	ec56                	sd	s5,24(sp)
    80002274:	e85a                	sd	s6,16(sp)
    80002276:	e45e                	sd	s7,8(sp)
    80002278:	0880                	addi	s0,sp,80
    8000227a:	8792                	mv	a5,tp
    8000227c:	2781                	sext.w	a5,a5
    8000227e:	00779b13          	slli	s6,a5,0x7
    80002282:	0066f717          	auipc	a4,0x66f
    80002286:	c3670713          	addi	a4,a4,-970 # 80670eb8 <pid_lock>
    8000228a:	975a                	add	a4,a4,s6
    8000228c:	02073823          	sd	zero,48(a4)
    80002290:	0066f717          	auipc	a4,0x66f
    80002294:	c6070713          	addi	a4,a4,-928 # 80670ef0 <cpus+0x8>
    80002298:	9b3a                	add	s6,s6,a4
    8000229a:	4a0d                	li	s4,3
    8000229c:	4b91                	li	s7,4
    8000229e:	079e                	slli	a5,a5,0x7
    800022a0:	0066fa97          	auipc	s5,0x66f
    800022a4:	c18a8a93          	addi	s5,s5,-1000 # 80670eb8 <pid_lock>
    800022a8:	9abe                	add	s5,s5,a5
    800022aa:	00677997          	auipc	s3,0x677
    800022ae:	c3e98993          	addi	s3,s3,-962 # 80678ee8 <tickslock>
    800022b2:	100027f3          	csrr	a5,sstatus
    800022b6:	0027e793          	ori	a5,a5,2
    800022ba:	10079073          	csrw	sstatus,a5
    800022be:	0066f497          	auipc	s1,0x66f
    800022c2:	02a48493          	addi	s1,s1,42 # 806712e8 <proc>
    800022c6:	a03d                	j	800022f4 <scheduler+0x90>
    800022c8:	0374a023          	sw	s7,32(s1)
    800022cc:	029ab823          	sd	s1,48(s5)
    800022d0:	06848593          	addi	a1,s1,104
    800022d4:	855a                	mv	a0,s6
    800022d6:	00001097          	auipc	ra,0x1
    800022da:	88a080e7          	jalr	-1910(ra) # 80002b60 <swtch>
    800022de:	020ab823          	sd	zero,48(s5)
    800022e2:	854a                	mv	a0,s2
    800022e4:	fffff097          	auipc	ra,0xfffff
    800022e8:	b78080e7          	jalr	-1160(ra) # 80000e5c <release>
    800022ec:	1f048493          	addi	s1,s1,496
    800022f0:	fd3481e3          	beq	s1,s3,800022b2 <scheduler+0x4e>
    800022f4:	00848913          	addi	s2,s1,8
    800022f8:	854a                	mv	a0,s2
    800022fa:	fffff097          	auipc	ra,0xfffff
    800022fe:	aae080e7          	jalr	-1362(ra) # 80000da8 <acquire>
    80002302:	509c                	lw	a5,32(s1)
    80002304:	fd479fe3          	bne	a5,s4,800022e2 <scheduler+0x7e>
    80002308:	b7c1                	j	800022c8 <scheduler+0x64>

000000008000230a <sched>:
    8000230a:	7179                	addi	sp,sp,-48
    8000230c:	f406                	sd	ra,40(sp)
    8000230e:	f022                	sd	s0,32(sp)
    80002310:	ec26                	sd	s1,24(sp)
    80002312:	e84a                	sd	s2,16(sp)
    80002314:	e44e                	sd	s3,8(sp)
    80002316:	1800                	addi	s0,sp,48
    80002318:	00000097          	auipc	ra,0x0
    8000231c:	9a0080e7          	jalr	-1632(ra) # 80001cb8 <myproc>
    80002320:	84aa                	mv	s1,a0
    80002322:	0521                	addi	a0,a0,8
    80002324:	fffff097          	auipc	ra,0xfffff
    80002328:	a0a080e7          	jalr	-1526(ra) # 80000d2e <holding>
    8000232c:	c93d                	beqz	a0,800023a2 <sched+0x98>
    8000232e:	8792                	mv	a5,tp
    80002330:	2781                	sext.w	a5,a5
    80002332:	079e                	slli	a5,a5,0x7
    80002334:	0066f717          	auipc	a4,0x66f
    80002338:	b8470713          	addi	a4,a4,-1148 # 80670eb8 <pid_lock>
    8000233c:	97ba                	add	a5,a5,a4
    8000233e:	0a87a703          	lw	a4,168(a5)
    80002342:	4785                	li	a5,1
    80002344:	06f71763          	bne	a4,a5,800023b2 <sched+0xa8>
    80002348:	5098                	lw	a4,32(s1)
    8000234a:	4791                	li	a5,4
    8000234c:	06f70b63          	beq	a4,a5,800023c2 <sched+0xb8>
    80002350:	100027f3          	csrr	a5,sstatus
    80002354:	8b89                	andi	a5,a5,2
    80002356:	efb5                	bnez	a5,800023d2 <sched+0xc8>
    80002358:	8792                	mv	a5,tp
    8000235a:	0066f917          	auipc	s2,0x66f
    8000235e:	b5e90913          	addi	s2,s2,-1186 # 80670eb8 <pid_lock>
    80002362:	2781                	sext.w	a5,a5
    80002364:	079e                	slli	a5,a5,0x7
    80002366:	97ca                	add	a5,a5,s2
    80002368:	0ac7a983          	lw	s3,172(a5)
    8000236c:	8792                	mv	a5,tp
    8000236e:	2781                	sext.w	a5,a5
    80002370:	079e                	slli	a5,a5,0x7
    80002372:	0066f597          	auipc	a1,0x66f
    80002376:	b7e58593          	addi	a1,a1,-1154 # 80670ef0 <cpus+0x8>
    8000237a:	95be                	add	a1,a1,a5
    8000237c:	06848513          	addi	a0,s1,104
    80002380:	00000097          	auipc	ra,0x0
    80002384:	7e0080e7          	jalr	2016(ra) # 80002b60 <swtch>
    80002388:	8792                	mv	a5,tp
    8000238a:	2781                	sext.w	a5,a5
    8000238c:	079e                	slli	a5,a5,0x7
    8000238e:	97ca                	add	a5,a5,s2
    80002390:	0b37a623          	sw	s3,172(a5)
    80002394:	70a2                	ld	ra,40(sp)
    80002396:	7402                	ld	s0,32(sp)
    80002398:	64e2                	ld	s1,24(sp)
    8000239a:	6942                	ld	s2,16(sp)
    8000239c:	69a2                	ld	s3,8(sp)
    8000239e:	6145                	addi	sp,sp,48
    800023a0:	8082                	ret
    800023a2:	00006517          	auipc	a0,0x6
    800023a6:	ebe50513          	addi	a0,a0,-322 # 80008260 <digits+0x220>
    800023aa:	ffffe097          	auipc	ra,0xffffe
    800023ae:	19a080e7          	jalr	410(ra) # 80000544 <panic>
    800023b2:	00006517          	auipc	a0,0x6
    800023b6:	ebe50513          	addi	a0,a0,-322 # 80008270 <digits+0x230>
    800023ba:	ffffe097          	auipc	ra,0xffffe
    800023be:	18a080e7          	jalr	394(ra) # 80000544 <panic>
    800023c2:	00006517          	auipc	a0,0x6
    800023c6:	ebe50513          	addi	a0,a0,-322 # 80008280 <digits+0x240>
    800023ca:	ffffe097          	auipc	ra,0xffffe
    800023ce:	17a080e7          	jalr	378(ra) # 80000544 <panic>
    800023d2:	00006517          	auipc	a0,0x6
    800023d6:	ebe50513          	addi	a0,a0,-322 # 80008290 <digits+0x250>
    800023da:	ffffe097          	auipc	ra,0xffffe
    800023de:	16a080e7          	jalr	362(ra) # 80000544 <panic>

00000000800023e2 <yield>:
    800023e2:	1101                	addi	sp,sp,-32
    800023e4:	ec06                	sd	ra,24(sp)
    800023e6:	e822                	sd	s0,16(sp)
    800023e8:	e426                	sd	s1,8(sp)
    800023ea:	e04a                	sd	s2,0(sp)
    800023ec:	1000                	addi	s0,sp,32
    800023ee:	00000097          	auipc	ra,0x0
    800023f2:	8ca080e7          	jalr	-1846(ra) # 80001cb8 <myproc>
    800023f6:	84aa                	mv	s1,a0
    800023f8:	00850913          	addi	s2,a0,8
    800023fc:	854a                	mv	a0,s2
    800023fe:	fffff097          	auipc	ra,0xfffff
    80002402:	9aa080e7          	jalr	-1622(ra) # 80000da8 <acquire>
    80002406:	478d                	li	a5,3
    80002408:	d09c                	sw	a5,32(s1)
    8000240a:	00000097          	auipc	ra,0x0
    8000240e:	f00080e7          	jalr	-256(ra) # 8000230a <sched>
    80002412:	854a                	mv	a0,s2
    80002414:	fffff097          	auipc	ra,0xfffff
    80002418:	a48080e7          	jalr	-1464(ra) # 80000e5c <release>
    8000241c:	60e2                	ld	ra,24(sp)
    8000241e:	6442                	ld	s0,16(sp)
    80002420:	64a2                	ld	s1,8(sp)
    80002422:	6902                	ld	s2,0(sp)
    80002424:	6105                	addi	sp,sp,32
    80002426:	8082                	ret

0000000080002428 <sleep>:
    80002428:	7179                	addi	sp,sp,-48
    8000242a:	f406                	sd	ra,40(sp)
    8000242c:	f022                	sd	s0,32(sp)
    8000242e:	ec26                	sd	s1,24(sp)
    80002430:	e84a                	sd	s2,16(sp)
    80002432:	e44e                	sd	s3,8(sp)
    80002434:	e052                	sd	s4,0(sp)
    80002436:	1800                	addi	s0,sp,48
    80002438:	89aa                	mv	s3,a0
    8000243a:	892e                	mv	s2,a1
    8000243c:	00000097          	auipc	ra,0x0
    80002440:	87c080e7          	jalr	-1924(ra) # 80001cb8 <myproc>
    80002444:	84aa                	mv	s1,a0
    80002446:	00850a13          	addi	s4,a0,8
    8000244a:	8552                	mv	a0,s4
    8000244c:	fffff097          	auipc	ra,0xfffff
    80002450:	95c080e7          	jalr	-1700(ra) # 80000da8 <acquire>
    80002454:	854a                	mv	a0,s2
    80002456:	fffff097          	auipc	ra,0xfffff
    8000245a:	a06080e7          	jalr	-1530(ra) # 80000e5c <release>
    8000245e:	0334b423          	sd	s3,40(s1)
    80002462:	4789                	li	a5,2
    80002464:	d09c                	sw	a5,32(s1)
    80002466:	00000097          	auipc	ra,0x0
    8000246a:	ea4080e7          	jalr	-348(ra) # 8000230a <sched>
    8000246e:	0204b423          	sd	zero,40(s1)
    80002472:	8552                	mv	a0,s4
    80002474:	fffff097          	auipc	ra,0xfffff
    80002478:	9e8080e7          	jalr	-1560(ra) # 80000e5c <release>
    8000247c:	854a                	mv	a0,s2
    8000247e:	fffff097          	auipc	ra,0xfffff
    80002482:	92a080e7          	jalr	-1750(ra) # 80000da8 <acquire>
    80002486:	70a2                	ld	ra,40(sp)
    80002488:	7402                	ld	s0,32(sp)
    8000248a:	64e2                	ld	s1,24(sp)
    8000248c:	6942                	ld	s2,16(sp)
    8000248e:	69a2                	ld	s3,8(sp)
    80002490:	6a02                	ld	s4,0(sp)
    80002492:	6145                	addi	sp,sp,48
    80002494:	8082                	ret

0000000080002496 <waitx>:
    80002496:	7159                	addi	sp,sp,-112
    80002498:	f486                	sd	ra,104(sp)
    8000249a:	f0a2                	sd	s0,96(sp)
    8000249c:	eca6                	sd	s1,88(sp)
    8000249e:	e8ca                	sd	s2,80(sp)
    800024a0:	e4ce                	sd	s3,72(sp)
    800024a2:	e0d2                	sd	s4,64(sp)
    800024a4:	fc56                	sd	s5,56(sp)
    800024a6:	f85a                	sd	s6,48(sp)
    800024a8:	f45e                	sd	s7,40(sp)
    800024aa:	f062                	sd	s8,32(sp)
    800024ac:	ec66                	sd	s9,24(sp)
    800024ae:	e86a                	sd	s10,16(sp)
    800024b0:	e46e                	sd	s11,8(sp)
    800024b2:	1880                	addi	s0,sp,112
    800024b4:	8b2a                	mv	s6,a0
    800024b6:	8bae                	mv	s7,a1
    800024b8:	8c32                	mv	s8,a2
    800024ba:	fffff097          	auipc	ra,0xfffff
    800024be:	7fe080e7          	jalr	2046(ra) # 80001cb8 <myproc>
    800024c2:	892a                	mv	s2,a0
    800024c4:	0066f517          	auipc	a0,0x66f
    800024c8:	a0c50513          	addi	a0,a0,-1524 # 80670ed0 <wait_lock>
    800024cc:	fffff097          	auipc	ra,0xfffff
    800024d0:	8dc080e7          	jalr	-1828(ra) # 80000da8 <acquire>
    800024d4:	4c81                	li	s9,0
    800024d6:	4a15                	li	s4,5
    800024d8:	00677997          	auipc	s3,0x677
    800024dc:	a1098993          	addi	s3,s3,-1520 # 80678ee8 <tickslock>
    800024e0:	4a85                	li	s5,1
    800024e2:	0066fd17          	auipc	s10,0x66f
    800024e6:	9eed0d13          	addi	s10,s10,-1554 # 80670ed0 <wait_lock>
    800024ea:	8766                	mv	a4,s9
    800024ec:	0066f497          	auipc	s1,0x66f
    800024f0:	dfc48493          	addi	s1,s1,-516 # 806712e8 <proc>
    800024f4:	a059                	j	8000257a <waitx+0xe4>
    800024f6:	0384a983          	lw	s3,56(s1)
    800024fa:	19c4a703          	lw	a4,412(s1)
    800024fe:	00ec2023          	sw	a4,0(s8) # 4000000 <_entry-0x7c000000>
    80002502:	1984a783          	lw	a5,408(s1)
    80002506:	9f3d                	addw	a4,a4,a5
    80002508:	1a04a783          	lw	a5,416(s1)
    8000250c:	9f99                	subw	a5,a5,a4
    8000250e:	00fba023          	sw	a5,0(s7) # fffffffffffff000 <end+0xffffffff7f97ad38>
    80002512:	000b0e63          	beqz	s6,8000252e <waitx+0x98>
    80002516:	4691                	li	a3,4
    80002518:	03448613          	addi	a2,s1,52
    8000251c:	85da                	mv	a1,s6
    8000251e:	05893503          	ld	a0,88(s2)
    80002522:	fffff097          	auipc	ra,0xfffff
    80002526:	316080e7          	jalr	790(ra) # 80001838 <copyout>
    8000252a:	02054563          	bltz	a0,80002554 <waitx+0xbe>
    8000252e:	8526                	mv	a0,s1
    80002530:	00000097          	auipc	ra,0x0
    80002534:	93c080e7          	jalr	-1732(ra) # 80001e6c <freeproc>
    80002538:	856e                	mv	a0,s11
    8000253a:	fffff097          	auipc	ra,0xfffff
    8000253e:	922080e7          	jalr	-1758(ra) # 80000e5c <release>
    80002542:	0066f517          	auipc	a0,0x66f
    80002546:	98e50513          	addi	a0,a0,-1650 # 80670ed0 <wait_lock>
    8000254a:	fffff097          	auipc	ra,0xfffff
    8000254e:	912080e7          	jalr	-1774(ra) # 80000e5c <release>
    80002552:	a0ad                	j	800025bc <waitx+0x126>
    80002554:	856e                	mv	a0,s11
    80002556:	fffff097          	auipc	ra,0xfffff
    8000255a:	906080e7          	jalr	-1786(ra) # 80000e5c <release>
    8000255e:	0066f517          	auipc	a0,0x66f
    80002562:	97250513          	addi	a0,a0,-1678 # 80670ed0 <wait_lock>
    80002566:	fffff097          	auipc	ra,0xfffff
    8000256a:	8f6080e7          	jalr	-1802(ra) # 80000e5c <release>
    8000256e:	59fd                	li	s3,-1
    80002570:	a0b1                	j	800025bc <waitx+0x126>
    80002572:	1f048493          	addi	s1,s1,496
    80002576:	03348663          	beq	s1,s3,800025a2 <waitx+0x10c>
    8000257a:	60bc                	ld	a5,64(s1)
    8000257c:	ff279be3          	bne	a5,s2,80002572 <waitx+0xdc>
    80002580:	00848d93          	addi	s11,s1,8
    80002584:	856e                	mv	a0,s11
    80002586:	fffff097          	auipc	ra,0xfffff
    8000258a:	822080e7          	jalr	-2014(ra) # 80000da8 <acquire>
    8000258e:	509c                	lw	a5,32(s1)
    80002590:	f74783e3          	beq	a5,s4,800024f6 <waitx+0x60>
    80002594:	856e                	mv	a0,s11
    80002596:	fffff097          	auipc	ra,0xfffff
    8000259a:	8c6080e7          	jalr	-1850(ra) # 80000e5c <release>
    8000259e:	8756                	mv	a4,s5
    800025a0:	bfc9                	j	80002572 <waitx+0xdc>
    800025a2:	c701                	beqz	a4,800025aa <waitx+0x114>
    800025a4:	03092783          	lw	a5,48(s2)
    800025a8:	cb95                	beqz	a5,800025dc <waitx+0x146>
    800025aa:	0066f517          	auipc	a0,0x66f
    800025ae:	92650513          	addi	a0,a0,-1754 # 80670ed0 <wait_lock>
    800025b2:	fffff097          	auipc	ra,0xfffff
    800025b6:	8aa080e7          	jalr	-1878(ra) # 80000e5c <release>
    800025ba:	59fd                	li	s3,-1
    800025bc:	854e                	mv	a0,s3
    800025be:	70a6                	ld	ra,104(sp)
    800025c0:	7406                	ld	s0,96(sp)
    800025c2:	64e6                	ld	s1,88(sp)
    800025c4:	6946                	ld	s2,80(sp)
    800025c6:	69a6                	ld	s3,72(sp)
    800025c8:	6a06                	ld	s4,64(sp)
    800025ca:	7ae2                	ld	s5,56(sp)
    800025cc:	7b42                	ld	s6,48(sp)
    800025ce:	7ba2                	ld	s7,40(sp)
    800025d0:	7c02                	ld	s8,32(sp)
    800025d2:	6ce2                	ld	s9,24(sp)
    800025d4:	6d42                	ld	s10,16(sp)
    800025d6:	6da2                	ld	s11,8(sp)
    800025d8:	6165                	addi	sp,sp,112
    800025da:	8082                	ret
    800025dc:	85ea                	mv	a1,s10
    800025de:	854a                	mv	a0,s2
    800025e0:	00000097          	auipc	ra,0x0
    800025e4:	e48080e7          	jalr	-440(ra) # 80002428 <sleep>
    800025e8:	b709                	j	800024ea <waitx+0x54>

00000000800025ea <wait>:
    800025ea:	711d                	addi	sp,sp,-96
    800025ec:	ec86                	sd	ra,88(sp)
    800025ee:	e8a2                	sd	s0,80(sp)
    800025f0:	e4a6                	sd	s1,72(sp)
    800025f2:	e0ca                	sd	s2,64(sp)
    800025f4:	fc4e                	sd	s3,56(sp)
    800025f6:	f852                	sd	s4,48(sp)
    800025f8:	f456                	sd	s5,40(sp)
    800025fa:	f05a                	sd	s6,32(sp)
    800025fc:	ec5e                	sd	s7,24(sp)
    800025fe:	e862                	sd	s8,16(sp)
    80002600:	e466                	sd	s9,8(sp)
    80002602:	1080                	addi	s0,sp,96
    80002604:	8baa                	mv	s7,a0
    80002606:	fffff097          	auipc	ra,0xfffff
    8000260a:	6b2080e7          	jalr	1714(ra) # 80001cb8 <myproc>
    8000260e:	892a                	mv	s2,a0
    80002610:	0066f517          	auipc	a0,0x66f
    80002614:	8c050513          	addi	a0,a0,-1856 # 80670ed0 <wait_lock>
    80002618:	ffffe097          	auipc	ra,0xffffe
    8000261c:	790080e7          	jalr	1936(ra) # 80000da8 <acquire>
    80002620:	4c01                	li	s8,0
    80002622:	4a95                	li	s5,5
    80002624:	00677997          	auipc	s3,0x677
    80002628:	8c498993          	addi	s3,s3,-1852 # 80678ee8 <tickslock>
    8000262c:	4b05                	li	s6,1
    8000262e:	0066fc97          	auipc	s9,0x66f
    80002632:	8a2c8c93          	addi	s9,s9,-1886 # 80670ed0 <wait_lock>
    80002636:	8762                	mv	a4,s8
    80002638:	0066f497          	auipc	s1,0x66f
    8000263c:	cb048493          	addi	s1,s1,-848 # 806712e8 <proc>
    80002640:	a8ad                	j	800026ba <wait+0xd0>
    80002642:	0384a983          	lw	s3,56(s1)
    80002646:	000b8e63          	beqz	s7,80002662 <wait+0x78>
    8000264a:	4691                	li	a3,4
    8000264c:	03448613          	addi	a2,s1,52
    80002650:	85de                	mv	a1,s7
    80002652:	05893503          	ld	a0,88(s2)
    80002656:	fffff097          	auipc	ra,0xfffff
    8000265a:	1e2080e7          	jalr	482(ra) # 80001838 <copyout>
    8000265e:	02054b63          	bltz	a0,80002694 <wait+0xaa>
    80002662:	8526                	mv	a0,s1
    80002664:	00000097          	auipc	ra,0x0
    80002668:	808080e7          	jalr	-2040(ra) # 80001e6c <freeproc>
    8000266c:	8552                	mv	a0,s4
    8000266e:	ffffe097          	auipc	ra,0xffffe
    80002672:	7ee080e7          	jalr	2030(ra) # 80000e5c <release>
    80002676:	0066f517          	auipc	a0,0x66f
    8000267a:	85a50513          	addi	a0,a0,-1958 # 80670ed0 <wait_lock>
    8000267e:	ffffe097          	auipc	ra,0xffffe
    80002682:	7de080e7          	jalr	2014(ra) # 80000e5c <release>
    80002686:	00006797          	auipc	a5,0x6
    8000268a:	5aa7a783          	lw	a5,1450(a5) # 80008c30 <ticks>
    8000268e:	1af4a023          	sw	a5,416(s1)
    80002692:	a0ad                	j	800026fc <wait+0x112>
    80002694:	8552                	mv	a0,s4
    80002696:	ffffe097          	auipc	ra,0xffffe
    8000269a:	7c6080e7          	jalr	1990(ra) # 80000e5c <release>
    8000269e:	0066f517          	auipc	a0,0x66f
    800026a2:	83250513          	addi	a0,a0,-1998 # 80670ed0 <wait_lock>
    800026a6:	ffffe097          	auipc	ra,0xffffe
    800026aa:	7b6080e7          	jalr	1974(ra) # 80000e5c <release>
    800026ae:	59fd                	li	s3,-1
    800026b0:	a0b1                	j	800026fc <wait+0x112>
    800026b2:	1f048493          	addi	s1,s1,496
    800026b6:	03348663          	beq	s1,s3,800026e2 <wait+0xf8>
    800026ba:	60bc                	ld	a5,64(s1)
    800026bc:	ff279be3          	bne	a5,s2,800026b2 <wait+0xc8>
    800026c0:	00848a13          	addi	s4,s1,8
    800026c4:	8552                	mv	a0,s4
    800026c6:	ffffe097          	auipc	ra,0xffffe
    800026ca:	6e2080e7          	jalr	1762(ra) # 80000da8 <acquire>
    800026ce:	509c                	lw	a5,32(s1)
    800026d0:	f75789e3          	beq	a5,s5,80002642 <wait+0x58>
    800026d4:	8552                	mv	a0,s4
    800026d6:	ffffe097          	auipc	ra,0xffffe
    800026da:	786080e7          	jalr	1926(ra) # 80000e5c <release>
    800026de:	875a                	mv	a4,s6
    800026e0:	bfc9                	j	800026b2 <wait+0xc8>
    800026e2:	c701                	beqz	a4,800026ea <wait+0x100>
    800026e4:	03092783          	lw	a5,48(s2)
    800026e8:	cb85                	beqz	a5,80002718 <wait+0x12e>
    800026ea:	0066e517          	auipc	a0,0x66e
    800026ee:	7e650513          	addi	a0,a0,2022 # 80670ed0 <wait_lock>
    800026f2:	ffffe097          	auipc	ra,0xffffe
    800026f6:	76a080e7          	jalr	1898(ra) # 80000e5c <release>
    800026fa:	59fd                	li	s3,-1
    800026fc:	854e                	mv	a0,s3
    800026fe:	60e6                	ld	ra,88(sp)
    80002700:	6446                	ld	s0,80(sp)
    80002702:	64a6                	ld	s1,72(sp)
    80002704:	6906                	ld	s2,64(sp)
    80002706:	79e2                	ld	s3,56(sp)
    80002708:	7a42                	ld	s4,48(sp)
    8000270a:	7aa2                	ld	s5,40(sp)
    8000270c:	7b02                	ld	s6,32(sp)
    8000270e:	6be2                	ld	s7,24(sp)
    80002710:	6c42                	ld	s8,16(sp)
    80002712:	6ca2                	ld	s9,8(sp)
    80002714:	6125                	addi	sp,sp,96
    80002716:	8082                	ret
    80002718:	85e6                	mv	a1,s9
    8000271a:	854a                	mv	a0,s2
    8000271c:	00000097          	auipc	ra,0x0
    80002720:	d0c080e7          	jalr	-756(ra) # 80002428 <sleep>
    80002724:	bf09                	j	80002636 <wait+0x4c>

0000000080002726 <wakeup>:
    80002726:	715d                	addi	sp,sp,-80
    80002728:	e486                	sd	ra,72(sp)
    8000272a:	e0a2                	sd	s0,64(sp)
    8000272c:	fc26                	sd	s1,56(sp)
    8000272e:	f84a                	sd	s2,48(sp)
    80002730:	f44e                	sd	s3,40(sp)
    80002732:	f052                	sd	s4,32(sp)
    80002734:	ec56                	sd	s5,24(sp)
    80002736:	e85a                	sd	s6,16(sp)
    80002738:	e45e                	sd	s7,8(sp)
    8000273a:	0880                	addi	s0,sp,80
    8000273c:	8aaa                	mv	s5,a0
    8000273e:	0066f497          	auipc	s1,0x66f
    80002742:	baa48493          	addi	s1,s1,-1110 # 806712e8 <proc>
    80002746:	4a09                	li	s4,2
    80002748:	4b0d                	li	s6,3
    8000274a:	00006b97          	auipc	s7,0x6
    8000274e:	4e6b8b93          	addi	s7,s7,1254 # 80008c30 <ticks>
    80002752:	00676997          	auipc	s3,0x676
    80002756:	79698993          	addi	s3,s3,1942 # 80678ee8 <tickslock>
    8000275a:	a811                	j	8000276e <wakeup+0x48>
    8000275c:	854a                	mv	a0,s2
    8000275e:	ffffe097          	auipc	ra,0xffffe
    80002762:	6fe080e7          	jalr	1790(ra) # 80000e5c <release>
    80002766:	1f048493          	addi	s1,s1,496
    8000276a:	05348663          	beq	s1,s3,800027b6 <wakeup+0x90>
    8000276e:	fffff097          	auipc	ra,0xfffff
    80002772:	54a080e7          	jalr	1354(ra) # 80001cb8 <myproc>
    80002776:	fea488e3          	beq	s1,a0,80002766 <wakeup+0x40>
    8000277a:	00848913          	addi	s2,s1,8
    8000277e:	854a                	mv	a0,s2
    80002780:	ffffe097          	auipc	ra,0xffffe
    80002784:	628080e7          	jalr	1576(ra) # 80000da8 <acquire>
    80002788:	509c                	lw	a5,32(s1)
    8000278a:	fd4799e3          	bne	a5,s4,8000275c <wakeup+0x36>
    8000278e:	749c                	ld	a5,40(s1)
    80002790:	fd5796e3          	bne	a5,s5,8000275c <wakeup+0x36>
    80002794:	0364a023          	sw	s6,32(s1)
    80002798:	1ac4a783          	lw	a5,428(s1)
    8000279c:	d3e1                	beqz	a5,8000275c <wakeup+0x36>
    8000279e:	000ba703          	lw	a4,0(s7)
    800027a2:	40f707bb          	subw	a5,a4,a5
    800027a6:	1af4a423          	sw	a5,424(s1)
    800027aa:	1a44a703          	lw	a4,420(s1)
    800027ae:	9fb9                	addw	a5,a5,a4
    800027b0:	1af4a223          	sw	a5,420(s1)
    800027b4:	b765                	j	8000275c <wakeup+0x36>
    800027b6:	60a6                	ld	ra,72(sp)
    800027b8:	6406                	ld	s0,64(sp)
    800027ba:	74e2                	ld	s1,56(sp)
    800027bc:	7942                	ld	s2,48(sp)
    800027be:	79a2                	ld	s3,40(sp)
    800027c0:	7a02                	ld	s4,32(sp)
    800027c2:	6ae2                	ld	s5,24(sp)
    800027c4:	6b42                	ld	s6,16(sp)
    800027c6:	6ba2                	ld	s7,8(sp)
    800027c8:	6161                	addi	sp,sp,80
    800027ca:	8082                	ret

00000000800027cc <reparent>:
    800027cc:	7179                	addi	sp,sp,-48
    800027ce:	f406                	sd	ra,40(sp)
    800027d0:	f022                	sd	s0,32(sp)
    800027d2:	ec26                	sd	s1,24(sp)
    800027d4:	e84a                	sd	s2,16(sp)
    800027d6:	e44e                	sd	s3,8(sp)
    800027d8:	e052                	sd	s4,0(sp)
    800027da:	1800                	addi	s0,sp,48
    800027dc:	892a                	mv	s2,a0
    800027de:	0066f497          	auipc	s1,0x66f
    800027e2:	b0a48493          	addi	s1,s1,-1270 # 806712e8 <proc>
    800027e6:	00006a17          	auipc	s4,0x6
    800027ea:	442a0a13          	addi	s4,s4,1090 # 80008c28 <initproc>
    800027ee:	00676997          	auipc	s3,0x676
    800027f2:	6fa98993          	addi	s3,s3,1786 # 80678ee8 <tickslock>
    800027f6:	a029                	j	80002800 <reparent+0x34>
    800027f8:	1f048493          	addi	s1,s1,496
    800027fc:	01348d63          	beq	s1,s3,80002816 <reparent+0x4a>
    80002800:	60bc                	ld	a5,64(s1)
    80002802:	ff279be3          	bne	a5,s2,800027f8 <reparent+0x2c>
    80002806:	000a3503          	ld	a0,0(s4)
    8000280a:	e0a8                	sd	a0,64(s1)
    8000280c:	00000097          	auipc	ra,0x0
    80002810:	f1a080e7          	jalr	-230(ra) # 80002726 <wakeup>
    80002814:	b7d5                	j	800027f8 <reparent+0x2c>
    80002816:	70a2                	ld	ra,40(sp)
    80002818:	7402                	ld	s0,32(sp)
    8000281a:	64e2                	ld	s1,24(sp)
    8000281c:	6942                	ld	s2,16(sp)
    8000281e:	69a2                	ld	s3,8(sp)
    80002820:	6a02                	ld	s4,0(sp)
    80002822:	6145                	addi	sp,sp,48
    80002824:	8082                	ret

0000000080002826 <exit>:
    80002826:	7179                	addi	sp,sp,-48
    80002828:	f406                	sd	ra,40(sp)
    8000282a:	f022                	sd	s0,32(sp)
    8000282c:	ec26                	sd	s1,24(sp)
    8000282e:	e84a                	sd	s2,16(sp)
    80002830:	e44e                	sd	s3,8(sp)
    80002832:	e052                	sd	s4,0(sp)
    80002834:	1800                	addi	s0,sp,48
    80002836:	8a2a                	mv	s4,a0
    80002838:	fffff097          	auipc	ra,0xfffff
    8000283c:	480080e7          	jalr	1152(ra) # 80001cb8 <myproc>
    80002840:	89aa                	mv	s3,a0
    80002842:	00006797          	auipc	a5,0x6
    80002846:	3e67b783          	ld	a5,998(a5) # 80008c28 <initproc>
    8000284a:	0d850493          	addi	s1,a0,216
    8000284e:	15850913          	addi	s2,a0,344
    80002852:	02a79363          	bne	a5,a0,80002878 <exit+0x52>
    80002856:	00006517          	auipc	a0,0x6
    8000285a:	a5250513          	addi	a0,a0,-1454 # 800082a8 <digits+0x268>
    8000285e:	ffffe097          	auipc	ra,0xffffe
    80002862:	ce6080e7          	jalr	-794(ra) # 80000544 <panic>
    80002866:	00002097          	auipc	ra,0x2
    8000286a:	66e080e7          	jalr	1646(ra) # 80004ed4 <fileclose>
    8000286e:	0004b023          	sd	zero,0(s1)
    80002872:	04a1                	addi	s1,s1,8
    80002874:	01248563          	beq	s1,s2,8000287e <exit+0x58>
    80002878:	6088                	ld	a0,0(s1)
    8000287a:	f575                	bnez	a0,80002866 <exit+0x40>
    8000287c:	bfdd                	j	80002872 <exit+0x4c>
    8000287e:	00002097          	auipc	ra,0x2
    80002882:	18a080e7          	jalr	394(ra) # 80004a08 <begin_op>
    80002886:	1589b503          	ld	a0,344(s3)
    8000288a:	00002097          	auipc	ra,0x2
    8000288e:	976080e7          	jalr	-1674(ra) # 80004200 <iput>
    80002892:	00002097          	auipc	ra,0x2
    80002896:	1f6080e7          	jalr	502(ra) # 80004a88 <end_op>
    8000289a:	1409bc23          	sd	zero,344(s3)
    8000289e:	0066e497          	auipc	s1,0x66e
    800028a2:	63248493          	addi	s1,s1,1586 # 80670ed0 <wait_lock>
    800028a6:	8526                	mv	a0,s1
    800028a8:	ffffe097          	auipc	ra,0xffffe
    800028ac:	500080e7          	jalr	1280(ra) # 80000da8 <acquire>
    800028b0:	854e                	mv	a0,s3
    800028b2:	00000097          	auipc	ra,0x0
    800028b6:	f1a080e7          	jalr	-230(ra) # 800027cc <reparent>
    800028ba:	0409b503          	ld	a0,64(s3)
    800028be:	00000097          	auipc	ra,0x0
    800028c2:	e68080e7          	jalr	-408(ra) # 80002726 <wakeup>
    800028c6:	00898513          	addi	a0,s3,8
    800028ca:	ffffe097          	auipc	ra,0xffffe
    800028ce:	4de080e7          	jalr	1246(ra) # 80000da8 <acquire>
    800028d2:	0349aa23          	sw	s4,52(s3)
    800028d6:	4795                	li	a5,5
    800028d8:	02f9a023          	sw	a5,32(s3)
    800028dc:	00006797          	auipc	a5,0x6
    800028e0:	3547a783          	lw	a5,852(a5) # 80008c30 <ticks>
    800028e4:	1af9a023          	sw	a5,416(s3)
    800028e8:	8526                	mv	a0,s1
    800028ea:	ffffe097          	auipc	ra,0xffffe
    800028ee:	572080e7          	jalr	1394(ra) # 80000e5c <release>
    800028f2:	00000097          	auipc	ra,0x0
    800028f6:	a18080e7          	jalr	-1512(ra) # 8000230a <sched>
    800028fa:	00006517          	auipc	a0,0x6
    800028fe:	9be50513          	addi	a0,a0,-1602 # 800082b8 <digits+0x278>
    80002902:	ffffe097          	auipc	ra,0xffffe
    80002906:	c42080e7          	jalr	-958(ra) # 80000544 <panic>

000000008000290a <kill>:
    8000290a:	7179                	addi	sp,sp,-48
    8000290c:	f406                	sd	ra,40(sp)
    8000290e:	f022                	sd	s0,32(sp)
    80002910:	ec26                	sd	s1,24(sp)
    80002912:	e84a                	sd	s2,16(sp)
    80002914:	e44e                	sd	s3,8(sp)
    80002916:	e052                	sd	s4,0(sp)
    80002918:	1800                	addi	s0,sp,48
    8000291a:	89aa                	mv	s3,a0
    8000291c:	0066f497          	auipc	s1,0x66f
    80002920:	9cc48493          	addi	s1,s1,-1588 # 806712e8 <proc>
    80002924:	00676a17          	auipc	s4,0x676
    80002928:	5c4a0a13          	addi	s4,s4,1476 # 80678ee8 <tickslock>
    8000292c:	00848913          	addi	s2,s1,8
    80002930:	854a                	mv	a0,s2
    80002932:	ffffe097          	auipc	ra,0xffffe
    80002936:	476080e7          	jalr	1142(ra) # 80000da8 <acquire>
    8000293a:	5c9c                	lw	a5,56(s1)
    8000293c:	01378d63          	beq	a5,s3,80002956 <kill+0x4c>
    80002940:	854a                	mv	a0,s2
    80002942:	ffffe097          	auipc	ra,0xffffe
    80002946:	51a080e7          	jalr	1306(ra) # 80000e5c <release>
    8000294a:	1f048493          	addi	s1,s1,496
    8000294e:	fd449fe3          	bne	s1,s4,8000292c <kill+0x22>
    80002952:	557d                	li	a0,-1
    80002954:	a829                	j	8000296e <kill+0x64>
    80002956:	4785                	li	a5,1
    80002958:	d89c                	sw	a5,48(s1)
    8000295a:	5098                	lw	a4,32(s1)
    8000295c:	4789                	li	a5,2
    8000295e:	02f70063          	beq	a4,a5,8000297e <kill+0x74>
    80002962:	854a                	mv	a0,s2
    80002964:	ffffe097          	auipc	ra,0xffffe
    80002968:	4f8080e7          	jalr	1272(ra) # 80000e5c <release>
    8000296c:	4501                	li	a0,0
    8000296e:	70a2                	ld	ra,40(sp)
    80002970:	7402                	ld	s0,32(sp)
    80002972:	64e2                	ld	s1,24(sp)
    80002974:	6942                	ld	s2,16(sp)
    80002976:	69a2                	ld	s3,8(sp)
    80002978:	6a02                	ld	s4,0(sp)
    8000297a:	6145                	addi	sp,sp,48
    8000297c:	8082                	ret
    8000297e:	1ac4a703          	lw	a4,428(s1)
    80002982:	00006797          	auipc	a5,0x6
    80002986:	2ae7a783          	lw	a5,686(a5) # 80008c30 <ticks>
    8000298a:	9f99                	subw	a5,a5,a4
    8000298c:	1af4a423          	sw	a5,424(s1)
    80002990:	478d                	li	a5,3
    80002992:	d09c                	sw	a5,32(s1)
    80002994:	b7f9                	j	80002962 <kill+0x58>

0000000080002996 <setkilled>:
    80002996:	1101                	addi	sp,sp,-32
    80002998:	ec06                	sd	ra,24(sp)
    8000299a:	e822                	sd	s0,16(sp)
    8000299c:	e426                	sd	s1,8(sp)
    8000299e:	e04a                	sd	s2,0(sp)
    800029a0:	1000                	addi	s0,sp,32
    800029a2:	84aa                	mv	s1,a0
    800029a4:	00850913          	addi	s2,a0,8
    800029a8:	854a                	mv	a0,s2
    800029aa:	ffffe097          	auipc	ra,0xffffe
    800029ae:	3fe080e7          	jalr	1022(ra) # 80000da8 <acquire>
    800029b2:	4785                	li	a5,1
    800029b4:	d89c                	sw	a5,48(s1)
    800029b6:	854a                	mv	a0,s2
    800029b8:	ffffe097          	auipc	ra,0xffffe
    800029bc:	4a4080e7          	jalr	1188(ra) # 80000e5c <release>
    800029c0:	60e2                	ld	ra,24(sp)
    800029c2:	6442                	ld	s0,16(sp)
    800029c4:	64a2                	ld	s1,8(sp)
    800029c6:	6902                	ld	s2,0(sp)
    800029c8:	6105                	addi	sp,sp,32
    800029ca:	8082                	ret

00000000800029cc <killed>:
    800029cc:	1101                	addi	sp,sp,-32
    800029ce:	ec06                	sd	ra,24(sp)
    800029d0:	e822                	sd	s0,16(sp)
    800029d2:	e426                	sd	s1,8(sp)
    800029d4:	e04a                	sd	s2,0(sp)
    800029d6:	1000                	addi	s0,sp,32
    800029d8:	84aa                	mv	s1,a0
    800029da:	00850913          	addi	s2,a0,8
    800029de:	854a                	mv	a0,s2
    800029e0:	ffffe097          	auipc	ra,0xffffe
    800029e4:	3c8080e7          	jalr	968(ra) # 80000da8 <acquire>
    800029e8:	5884                	lw	s1,48(s1)
    800029ea:	854a                	mv	a0,s2
    800029ec:	ffffe097          	auipc	ra,0xffffe
    800029f0:	470080e7          	jalr	1136(ra) # 80000e5c <release>
    800029f4:	8526                	mv	a0,s1
    800029f6:	60e2                	ld	ra,24(sp)
    800029f8:	6442                	ld	s0,16(sp)
    800029fa:	64a2                	ld	s1,8(sp)
    800029fc:	6902                	ld	s2,0(sp)
    800029fe:	6105                	addi	sp,sp,32
    80002a00:	8082                	ret

0000000080002a02 <either_copyout>:
    80002a02:	7179                	addi	sp,sp,-48
    80002a04:	f406                	sd	ra,40(sp)
    80002a06:	f022                	sd	s0,32(sp)
    80002a08:	ec26                	sd	s1,24(sp)
    80002a0a:	e84a                	sd	s2,16(sp)
    80002a0c:	e44e                	sd	s3,8(sp)
    80002a0e:	e052                	sd	s4,0(sp)
    80002a10:	1800                	addi	s0,sp,48
    80002a12:	84aa                	mv	s1,a0
    80002a14:	892e                	mv	s2,a1
    80002a16:	89b2                	mv	s3,a2
    80002a18:	8a36                	mv	s4,a3
    80002a1a:	fffff097          	auipc	ra,0xfffff
    80002a1e:	29e080e7          	jalr	670(ra) # 80001cb8 <myproc>
    80002a22:	c08d                	beqz	s1,80002a44 <either_copyout+0x42>
    80002a24:	86d2                	mv	a3,s4
    80002a26:	864e                	mv	a2,s3
    80002a28:	85ca                	mv	a1,s2
    80002a2a:	6d28                	ld	a0,88(a0)
    80002a2c:	fffff097          	auipc	ra,0xfffff
    80002a30:	e0c080e7          	jalr	-500(ra) # 80001838 <copyout>
    80002a34:	70a2                	ld	ra,40(sp)
    80002a36:	7402                	ld	s0,32(sp)
    80002a38:	64e2                	ld	s1,24(sp)
    80002a3a:	6942                	ld	s2,16(sp)
    80002a3c:	69a2                	ld	s3,8(sp)
    80002a3e:	6a02                	ld	s4,0(sp)
    80002a40:	6145                	addi	sp,sp,48
    80002a42:	8082                	ret
    80002a44:	000a061b          	sext.w	a2,s4
    80002a48:	85ce                	mv	a1,s3
    80002a4a:	854a                	mv	a0,s2
    80002a4c:	ffffe097          	auipc	ra,0xffffe
    80002a50:	4b8080e7          	jalr	1208(ra) # 80000f04 <memmove>
    80002a54:	8526                	mv	a0,s1
    80002a56:	bff9                	j	80002a34 <either_copyout+0x32>

0000000080002a58 <either_copyin>:
    80002a58:	7179                	addi	sp,sp,-48
    80002a5a:	f406                	sd	ra,40(sp)
    80002a5c:	f022                	sd	s0,32(sp)
    80002a5e:	ec26                	sd	s1,24(sp)
    80002a60:	e84a                	sd	s2,16(sp)
    80002a62:	e44e                	sd	s3,8(sp)
    80002a64:	e052                	sd	s4,0(sp)
    80002a66:	1800                	addi	s0,sp,48
    80002a68:	892a                	mv	s2,a0
    80002a6a:	84ae                	mv	s1,a1
    80002a6c:	89b2                	mv	s3,a2
    80002a6e:	8a36                	mv	s4,a3
    80002a70:	fffff097          	auipc	ra,0xfffff
    80002a74:	248080e7          	jalr	584(ra) # 80001cb8 <myproc>
    80002a78:	c08d                	beqz	s1,80002a9a <either_copyin+0x42>
    80002a7a:	86d2                	mv	a3,s4
    80002a7c:	864e                	mv	a2,s3
    80002a7e:	85ca                	mv	a1,s2
    80002a80:	6d28                	ld	a0,88(a0)
    80002a82:	fffff097          	auipc	ra,0xfffff
    80002a86:	e76080e7          	jalr	-394(ra) # 800018f8 <copyin>
    80002a8a:	70a2                	ld	ra,40(sp)
    80002a8c:	7402                	ld	s0,32(sp)
    80002a8e:	64e2                	ld	s1,24(sp)
    80002a90:	6942                	ld	s2,16(sp)
    80002a92:	69a2                	ld	s3,8(sp)
    80002a94:	6a02                	ld	s4,0(sp)
    80002a96:	6145                	addi	sp,sp,48
    80002a98:	8082                	ret
    80002a9a:	000a061b          	sext.w	a2,s4
    80002a9e:	85ce                	mv	a1,s3
    80002aa0:	854a                	mv	a0,s2
    80002aa2:	ffffe097          	auipc	ra,0xffffe
    80002aa6:	462080e7          	jalr	1122(ra) # 80000f04 <memmove>
    80002aaa:	8526                	mv	a0,s1
    80002aac:	bff9                	j	80002a8a <either_copyin+0x32>

0000000080002aae <procdump>:
    80002aae:	715d                	addi	sp,sp,-80
    80002ab0:	e486                	sd	ra,72(sp)
    80002ab2:	e0a2                	sd	s0,64(sp)
    80002ab4:	fc26                	sd	s1,56(sp)
    80002ab6:	f84a                	sd	s2,48(sp)
    80002ab8:	f44e                	sd	s3,40(sp)
    80002aba:	f052                	sd	s4,32(sp)
    80002abc:	ec56                	sd	s5,24(sp)
    80002abe:	e85a                	sd	s6,16(sp)
    80002ac0:	e45e                	sd	s7,8(sp)
    80002ac2:	0880                	addi	s0,sp,80
    80002ac4:	00005517          	auipc	a0,0x5
    80002ac8:	63450513          	addi	a0,a0,1588 # 800080f8 <digits+0xb8>
    80002acc:	ffffe097          	auipc	ra,0xffffe
    80002ad0:	ac2080e7          	jalr	-1342(ra) # 8000058e <printf>
    80002ad4:	0066f497          	auipc	s1,0x66f
    80002ad8:	97448493          	addi	s1,s1,-1676 # 80671448 <proc+0x160>
    80002adc:	00676917          	auipc	s2,0x676
    80002ae0:	56c90913          	addi	s2,s2,1388 # 80679048 <bcache+0x148>
    80002ae4:	4b15                	li	s6,5
    80002ae6:	00005997          	auipc	s3,0x5
    80002aea:	7e298993          	addi	s3,s3,2018 # 800082c8 <digits+0x288>
    80002aee:	00005a97          	auipc	s5,0x5
    80002af2:	7e2a8a93          	addi	s5,s5,2018 # 800082d0 <digits+0x290>
    80002af6:	00005a17          	auipc	s4,0x5
    80002afa:	602a0a13          	addi	s4,s4,1538 # 800080f8 <digits+0xb8>
    80002afe:	00006b97          	auipc	s7,0x6
    80002b02:	812b8b93          	addi	s7,s7,-2030 # 80008310 <states.2512>
    80002b06:	a01d                	j	80002b2c <procdump+0x7e>
    80002b08:	4afc                	lw	a5,84(a3)
    80002b0a:	5ed8                	lw	a4,60(a3)
    80002b0c:	ed86a583          	lw	a1,-296(a3)
    80002b10:	8556                	mv	a0,s5
    80002b12:	ffffe097          	auipc	ra,0xffffe
    80002b16:	a7c080e7          	jalr	-1412(ra) # 8000058e <printf>
    80002b1a:	8552                	mv	a0,s4
    80002b1c:	ffffe097          	auipc	ra,0xffffe
    80002b20:	a72080e7          	jalr	-1422(ra) # 8000058e <printf>
    80002b24:	1f048493          	addi	s1,s1,496
    80002b28:	03248163          	beq	s1,s2,80002b4a <procdump+0x9c>
    80002b2c:	86a6                	mv	a3,s1
    80002b2e:	ec04a783          	lw	a5,-320(s1)
    80002b32:	dbed                	beqz	a5,80002b24 <procdump+0x76>
    80002b34:	864e                	mv	a2,s3
    80002b36:	fcfb69e3          	bltu	s6,a5,80002b08 <procdump+0x5a>
    80002b3a:	1782                	slli	a5,a5,0x20
    80002b3c:	9381                	srli	a5,a5,0x20
    80002b3e:	078e                	slli	a5,a5,0x3
    80002b40:	97de                	add	a5,a5,s7
    80002b42:	6390                	ld	a2,0(a5)
    80002b44:	f271                	bnez	a2,80002b08 <procdump+0x5a>
    80002b46:	864e                	mv	a2,s3
    80002b48:	b7c1                	j	80002b08 <procdump+0x5a>
    80002b4a:	60a6                	ld	ra,72(sp)
    80002b4c:	6406                	ld	s0,64(sp)
    80002b4e:	74e2                	ld	s1,56(sp)
    80002b50:	7942                	ld	s2,48(sp)
    80002b52:	79a2                	ld	s3,40(sp)
    80002b54:	7a02                	ld	s4,32(sp)
    80002b56:	6ae2                	ld	s5,24(sp)
    80002b58:	6b42                	ld	s6,16(sp)
    80002b5a:	6ba2                	ld	s7,8(sp)
    80002b5c:	6161                	addi	sp,sp,80
    80002b5e:	8082                	ret

0000000080002b60 <swtch>:
    80002b60:	00153023          	sd	ra,0(a0)
    80002b64:	00253423          	sd	sp,8(a0)
    80002b68:	e900                	sd	s0,16(a0)
    80002b6a:	ed04                	sd	s1,24(a0)
    80002b6c:	03253023          	sd	s2,32(a0)
    80002b70:	03353423          	sd	s3,40(a0)
    80002b74:	03453823          	sd	s4,48(a0)
    80002b78:	03553c23          	sd	s5,56(a0)
    80002b7c:	05653023          	sd	s6,64(a0)
    80002b80:	05753423          	sd	s7,72(a0)
    80002b84:	05853823          	sd	s8,80(a0)
    80002b88:	05953c23          	sd	s9,88(a0)
    80002b8c:	07a53023          	sd	s10,96(a0)
    80002b90:	07b53423          	sd	s11,104(a0)
    80002b94:	0005b083          	ld	ra,0(a1)
    80002b98:	0085b103          	ld	sp,8(a1)
    80002b9c:	6980                	ld	s0,16(a1)
    80002b9e:	6d84                	ld	s1,24(a1)
    80002ba0:	0205b903          	ld	s2,32(a1)
    80002ba4:	0285b983          	ld	s3,40(a1)
    80002ba8:	0305ba03          	ld	s4,48(a1)
    80002bac:	0385ba83          	ld	s5,56(a1)
    80002bb0:	0405bb03          	ld	s6,64(a1)
    80002bb4:	0485bb83          	ld	s7,72(a1)
    80002bb8:	0505bc03          	ld	s8,80(a1)
    80002bbc:	0585bc83          	ld	s9,88(a1)
    80002bc0:	0605bd03          	ld	s10,96(a1)
    80002bc4:	0685bd83          	ld	s11,104(a1)
    80002bc8:	8082                	ret

0000000080002bca <trapinit>:
void kernelvec();

extern int devintr();

void trapinit(void)
{
    80002bca:	1141                	addi	sp,sp,-16
    80002bcc:	e406                	sd	ra,8(sp)
    80002bce:	e022                	sd	s0,0(sp)
    80002bd0:	0800                	addi	s0,sp,16
	initlock(&tickslock, "time");
    80002bd2:	00005597          	auipc	a1,0x5
    80002bd6:	76e58593          	addi	a1,a1,1902 # 80008340 <states.2512+0x30>
    80002bda:	00676517          	auipc	a0,0x676
    80002bde:	30e50513          	addi	a0,a0,782 # 80678ee8 <tickslock>
    80002be2:	ffffe097          	auipc	ra,0xffffe
    80002be6:	136080e7          	jalr	310(ra) # 80000d18 <initlock>
}
    80002bea:	60a2                	ld	ra,8(sp)
    80002bec:	6402                	ld	s0,0(sp)
    80002bee:	0141                	addi	sp,sp,16
    80002bf0:	8082                	ret

0000000080002bf2 <trapinithart>:

// set up to take exceptions and traps while in the kernel.
void trapinithart(void)
{
    80002bf2:	1141                	addi	sp,sp,-16
    80002bf4:	e422                	sd	s0,8(sp)
    80002bf6:	0800                	addi	s0,sp,16
// Supervisor Trap-Vector Base Address
// low two bits are mode.
static inline void 
w_stvec(uint64 x)
{
  asm volatile("csrw stvec, %0" : : "r" (x));
    80002bf8:	00004797          	auipc	a5,0x4
    80002bfc:	91878793          	addi	a5,a5,-1768 # 80006510 <kernelvec>
    80002c00:	10579073          	csrw	stvec,a5
	w_stvec((uint64)kernelvec);
}
    80002c04:	6422                	ld	s0,8(sp)
    80002c06:	0141                	addi	sp,sp,16
    80002c08:	8082                	ret

0000000080002c0a <cowalloc>:
{
	// ** va must be PGSIZE aligned
	// if ((va % PGSIZE) != 0)
	// 	return -1;

	if (va == 0)
    80002c0a:	fff58713          	addi	a4,a1,-1
    80002c0e:	f80007b7          	lui	a5,0xf8000
    80002c12:	83e9                	srli	a5,a5,0x1a
    80002c14:	08e7e063          	bltu	a5,a4,80002c94 <cowalloc+0x8a>
{
    80002c18:	7179                	addi	sp,sp,-48
    80002c1a:	f406                	sd	ra,40(sp)
    80002c1c:	f022                	sd	s0,32(sp)
    80002c1e:	ec26                	sd	s1,24(sp)
    80002c20:	e84a                	sd	s2,16(sp)
    80002c22:	e44e                	sd	s3,8(sp)
    80002c24:	1800                	addi	s0,sp,48

	// ** safety check
	if (va >= MAXVA)
		return -1;

	pte_t *pte = walk(pagetable, va, 0);
    80002c26:	4601                	li	a2,0
    80002c28:	ffffe097          	auipc	ra,0xffffe
    80002c2c:	568080e7          	jalr	1384(ra) # 80001190 <walk>
    80002c30:	84aa                	mv	s1,a0
	if (pte == 0)
    80002c32:	c13d                	beqz	a0,80002c98 <cowalloc+0x8e>
		return -1;
	if ((*pte & PTE_U) == 0 || (*pte & PTE_V) == 0)
    80002c34:	611c                	ld	a5,0(a0)
    80002c36:	0117f693          	andi	a3,a5,17
    80002c3a:	4745                	li	a4,17
    80002c3c:	06e69063          	bne	a3,a4,80002c9c <cowalloc+0x92>
		return -1;

	uint64 pa = PTE2PA(*pte);
    80002c40:	00a7d913          	srli	s2,a5,0xa
    80002c44:	0932                	slli	s2,s2,0xc
	if (pa == 0)
    80002c46:	04090d63          	beqz	s2,80002ca0 <cowalloc+0x96>

	// printf("here\n");

	// ** If page fault is raised with a COW page,
	// ** alloc a physical page, mapped to user pagetable and set PTE_W
	if (*pte & PTE_C)
    80002c4a:	1007f793          	andi	a5,a5,256
		// mappages(pagetable, va, PGSIZE, (uint64)ka, flags);
		krefdecr((void *)pa);
		// kfree((void *)pa);
	}

	return 0;
    80002c4e:	4501                	li	a0,0
	if (*pte & PTE_C)
    80002c50:	eb81                	bnez	a5,80002c60 <cowalloc+0x56>
}
    80002c52:	70a2                	ld	ra,40(sp)
    80002c54:	7402                	ld	s0,32(sp)
    80002c56:	64e2                	ld	s1,24(sp)
    80002c58:	6942                	ld	s2,16(sp)
    80002c5a:	69a2                	ld	s3,8(sp)
    80002c5c:	6145                	addi	sp,sp,48
    80002c5e:	8082                	ret
		uint64 ka = (uint64)kalloc();
    80002c60:	ffffe097          	auipc	ra,0xffffe
    80002c64:	014080e7          	jalr	20(ra) # 80000c74 <kalloc>
    80002c68:	89aa                	mv	s3,a0
		if (ka == 0)
    80002c6a:	cd0d                	beqz	a0,80002ca4 <cowalloc+0x9a>
		memmove((void *)ka, (void *)pa, PGSIZE);
    80002c6c:	6605                	lui	a2,0x1
    80002c6e:	85ca                	mv	a1,s2
    80002c70:	ffffe097          	auipc	ra,0xffffe
    80002c74:	294080e7          	jalr	660(ra) # 80000f04 <memmove>
		*pte = PA2PTE(ka) | PTE_U | PTE_V | PTE_W | PTE_X | PTE_R;
    80002c78:	00c9d993          	srli	s3,s3,0xc
    80002c7c:	09aa                	slli	s3,s3,0xa
    80002c7e:	01f9e993          	ori	s3,s3,31
    80002c82:	0134b023          	sd	s3,0(s1)
		krefdecr((void *)pa);
    80002c86:	854a                	mv	a0,s2
    80002c88:	ffffe097          	auipc	ra,0xffffe
    80002c8c:	dde080e7          	jalr	-546(ra) # 80000a66 <krefdecr>
	return 0;
    80002c90:	4501                	li	a0,0
    80002c92:	b7c1                	j	80002c52 <cowalloc+0x48>
		return -1;
    80002c94:	557d                	li	a0,-1
}
    80002c96:	8082                	ret
		return -1;
    80002c98:	557d                	li	a0,-1
    80002c9a:	bf65                	j	80002c52 <cowalloc+0x48>
		return -1;
    80002c9c:	557d                	li	a0,-1
    80002c9e:	bf55                	j	80002c52 <cowalloc+0x48>
		return -1;
    80002ca0:	557d                	li	a0,-1
    80002ca2:	bf45                	j	80002c52 <cowalloc+0x48>
			return -1;
    80002ca4:	557d                	li	a0,-1
    80002ca6:	b775                	j	80002c52 <cowalloc+0x48>

0000000080002ca8 <usertrapret>:

//
// return to user space
//
void usertrapret(void)
{
    80002ca8:	1141                	addi	sp,sp,-16
    80002caa:	e406                	sd	ra,8(sp)
    80002cac:	e022                	sd	s0,0(sp)
    80002cae:	0800                	addi	s0,sp,16
	struct proc *p = myproc();
    80002cb0:	fffff097          	auipc	ra,0xfffff
    80002cb4:	008080e7          	jalr	8(ra) # 80001cb8 <myproc>
  asm volatile("csrr %0, sstatus" : "=r" (x) );
    80002cb8:	100027f3          	csrr	a5,sstatus

// disable device interrupts
static inline void
intr_off()
{
  w_sstatus(r_sstatus() & ~SSTATUS_SIE);
    80002cbc:	9bf5                	andi	a5,a5,-3
  asm volatile("csrw sstatus, %0" : : "r" (x));
    80002cbe:	10079073          	csrw	sstatus,a5
	// kerneltrap() to usertrap(), so turn off interrupts until
	// we're back in user space, where usertrap() is correct.
	intr_off();

	// send syscalls, interrupts, and exceptions to uservec in trampoline.S
	uint64 trampoline_uservec = TRAMPOLINE + (uservec - trampoline);
    80002cc2:	00004617          	auipc	a2,0x4
    80002cc6:	33e60613          	addi	a2,a2,830 # 80007000 <_trampoline>
    80002cca:	00004697          	auipc	a3,0x4
    80002cce:	33668693          	addi	a3,a3,822 # 80007000 <_trampoline>
    80002cd2:	8e91                	sub	a3,a3,a2
    80002cd4:	040007b7          	lui	a5,0x4000
    80002cd8:	17fd                	addi	a5,a5,-1
    80002cda:	07b2                	slli	a5,a5,0xc
    80002cdc:	96be                	add	a3,a3,a5
  asm volatile("csrw stvec, %0" : : "r" (x));
    80002cde:	10569073          	csrw	stvec,a3
	w_stvec(trampoline_uservec);

	// set up trapframe values that uservec will need when
	// the process next traps into the kernel.
	p->trapframe->kernel_satp = r_satp();		  // kernel page table
    80002ce2:	7138                	ld	a4,96(a0)
  asm volatile("csrr %0, satp" : "=r" (x) );
    80002ce4:	180026f3          	csrr	a3,satp
    80002ce8:	e314                	sd	a3,0(a4)
	p->trapframe->kernel_sp = p->kstack + PGSIZE; // process's kernel stack
    80002cea:	7138                	ld	a4,96(a0)
    80002cec:	6534                	ld	a3,72(a0)
    80002cee:	6585                	lui	a1,0x1
    80002cf0:	96ae                	add	a3,a3,a1
    80002cf2:	e714                	sd	a3,8(a4)
	p->trapframe->kernel_trap = (uint64)usertrap;
    80002cf4:	7138                	ld	a4,96(a0)
    80002cf6:	00000697          	auipc	a3,0x0
    80002cfa:	13e68693          	addi	a3,a3,318 # 80002e34 <usertrap>
    80002cfe:	eb14                	sd	a3,16(a4)
	p->trapframe->kernel_hartid = r_tp(); // hartid for cpuid()
    80002d00:	7138                	ld	a4,96(a0)
// this core's hartid (core number), the index into cpus[].
static inline uint64
r_tp()
{
  uint64 x;
  asm volatile("mv %0, tp" : "=r" (x) );
    80002d02:	8692                	mv	a3,tp
    80002d04:	f314                	sd	a3,32(a4)
  asm volatile("csrr %0, sstatus" : "=r" (x) );
    80002d06:	100026f3          	csrr	a3,sstatus
	// set up the registers that trampoline.S's sret will use
	// to get to user space.

	// set S Previous Privilege mode to User.
	unsigned long x = r_sstatus();
	x &= ~SSTATUS_SPP; // clear SPP to 0 for user mode
    80002d0a:	eff6f693          	andi	a3,a3,-257
	x |= SSTATUS_SPIE; // enable interrupts in user mode
    80002d0e:	0206e693          	ori	a3,a3,32
  asm volatile("csrw sstatus, %0" : : "r" (x));
    80002d12:	10069073          	csrw	sstatus,a3
	w_sstatus(x);

	// set S Exception Program Counter to the saved user pc.
	w_sepc(p->trapframe->epc);
    80002d16:	7138                	ld	a4,96(a0)
  asm volatile("csrw sepc, %0" : : "r" (x));
    80002d18:	6f18                	ld	a4,24(a4)
    80002d1a:	14171073          	csrw	sepc,a4

	// tell trampoline.S the user page table to switch to.
	uint64 satp = MAKE_SATP(p->pagetable);
    80002d1e:	6d28                	ld	a0,88(a0)
    80002d20:	8131                	srli	a0,a0,0xc

	// jump to userret in trampoline.S at the top of memory, which
	// switches to the user page table, restores user registers,
	// and switches to user mode with sret.
	uint64 trampoline_userret = TRAMPOLINE + (userret - trampoline);
    80002d22:	00004717          	auipc	a4,0x4
    80002d26:	37a70713          	addi	a4,a4,890 # 8000709c <userret>
    80002d2a:	8f11                	sub	a4,a4,a2
    80002d2c:	97ba                	add	a5,a5,a4
	((void (*)(uint64))trampoline_userret)(satp);
    80002d2e:	577d                	li	a4,-1
    80002d30:	177e                	slli	a4,a4,0x3f
    80002d32:	8d59                	or	a0,a0,a4
    80002d34:	9782                	jalr	a5
}
    80002d36:	60a2                	ld	ra,8(sp)
    80002d38:	6402                	ld	s0,0(sp)
    80002d3a:	0141                	addi	sp,sp,16
    80002d3c:	8082                	ret

0000000080002d3e <clockintr>:
	w_sepc(sepc);
	w_sstatus(sstatus);
}

void clockintr()
{
    80002d3e:	1101                	addi	sp,sp,-32
    80002d40:	ec06                	sd	ra,24(sp)
    80002d42:	e822                	sd	s0,16(sp)
    80002d44:	e426                	sd	s1,8(sp)
    80002d46:	e04a                	sd	s2,0(sp)
    80002d48:	1000                	addi	s0,sp,32
	acquire(&tickslock);
    80002d4a:	00676917          	auipc	s2,0x676
    80002d4e:	19e90913          	addi	s2,s2,414 # 80678ee8 <tickslock>
    80002d52:	854a                	mv	a0,s2
    80002d54:	ffffe097          	auipc	ra,0xffffe
    80002d58:	054080e7          	jalr	84(ra) # 80000da8 <acquire>
	ticks++;
    80002d5c:	00006497          	auipc	s1,0x6
    80002d60:	ed448493          	addi	s1,s1,-300 # 80008c30 <ticks>
    80002d64:	409c                	lw	a5,0(s1)
    80002d66:	2785                	addiw	a5,a5,1
    80002d68:	c09c                	sw	a5,0(s1)
	upd_time();
    80002d6a:	fffff097          	auipc	ra,0xfffff
    80002d6e:	48c080e7          	jalr	1164(ra) # 800021f6 <upd_time>
	wakeup(&ticks);
    80002d72:	8526                	mv	a0,s1
    80002d74:	00000097          	auipc	ra,0x0
    80002d78:	9b2080e7          	jalr	-1614(ra) # 80002726 <wakeup>
	release(&tickslock);
    80002d7c:	854a                	mv	a0,s2
    80002d7e:	ffffe097          	auipc	ra,0xffffe
    80002d82:	0de080e7          	jalr	222(ra) # 80000e5c <release>
}
    80002d86:	60e2                	ld	ra,24(sp)
    80002d88:	6442                	ld	s0,16(sp)
    80002d8a:	64a2                	ld	s1,8(sp)
    80002d8c:	6902                	ld	s2,0(sp)
    80002d8e:	6105                	addi	sp,sp,32
    80002d90:	8082                	ret

0000000080002d92 <devintr>:
// and handle it.
// returns 2 if timer interrupt,
// 1 if other device,
// 0 if not recognized.
int devintr()
{
    80002d92:	1101                	addi	sp,sp,-32
    80002d94:	ec06                	sd	ra,24(sp)
    80002d96:	e822                	sd	s0,16(sp)
    80002d98:	e426                	sd	s1,8(sp)
    80002d9a:	1000                	addi	s0,sp,32
  asm volatile("csrr %0, scause" : "=r" (x) );
    80002d9c:	14202773          	csrr	a4,scause
	uint64 scause = r_scause();

	if ((scause & 0x8000000000000000L) &&
    80002da0:	00074d63          	bltz	a4,80002dba <devintr+0x28>
		if (irq)
			plic_complete(irq);

		return 1;
	}
	else if (scause == 0x8000000000000001L)
    80002da4:	57fd                	li	a5,-1
    80002da6:	17fe                	slli	a5,a5,0x3f
    80002da8:	0785                	addi	a5,a5,1

		return 2;
	}
	else
	{
		return 0;
    80002daa:	4501                	li	a0,0
	else if (scause == 0x8000000000000001L)
    80002dac:	06f70363          	beq	a4,a5,80002e12 <devintr+0x80>
	}
}
    80002db0:	60e2                	ld	ra,24(sp)
    80002db2:	6442                	ld	s0,16(sp)
    80002db4:	64a2                	ld	s1,8(sp)
    80002db6:	6105                	addi	sp,sp,32
    80002db8:	8082                	ret
		(scause & 0xff) == 9)
    80002dba:	0ff77793          	andi	a5,a4,255
	if ((scause & 0x8000000000000000L) &&
    80002dbe:	46a5                	li	a3,9
    80002dc0:	fed792e3          	bne	a5,a3,80002da4 <devintr+0x12>
		int irq = plic_claim();
    80002dc4:	00004097          	auipc	ra,0x4
    80002dc8:	854080e7          	jalr	-1964(ra) # 80006618 <plic_claim>
    80002dcc:	84aa                	mv	s1,a0
		if (irq == UART0_IRQ)
    80002dce:	47a9                	li	a5,10
    80002dd0:	02f50763          	beq	a0,a5,80002dfe <devintr+0x6c>
		else if (irq == VIRTIO0_IRQ)
    80002dd4:	4785                	li	a5,1
    80002dd6:	02f50963          	beq	a0,a5,80002e08 <devintr+0x76>
		return 1;
    80002dda:	4505                	li	a0,1
		else if (irq)
    80002ddc:	d8f1                	beqz	s1,80002db0 <devintr+0x1e>
			printf("unexpected interrupt irq=%d\n", irq);
    80002dde:	85a6                	mv	a1,s1
    80002de0:	00005517          	auipc	a0,0x5
    80002de4:	56850513          	addi	a0,a0,1384 # 80008348 <states.2512+0x38>
    80002de8:	ffffd097          	auipc	ra,0xffffd
    80002dec:	7a6080e7          	jalr	1958(ra) # 8000058e <printf>
			plic_complete(irq);
    80002df0:	8526                	mv	a0,s1
    80002df2:	00004097          	auipc	ra,0x4
    80002df6:	84a080e7          	jalr	-1974(ra) # 8000663c <plic_complete>
		return 1;
    80002dfa:	4505                	li	a0,1
    80002dfc:	bf55                	j	80002db0 <devintr+0x1e>
			uartintr();
    80002dfe:	ffffe097          	auipc	ra,0xffffe
    80002e02:	bb0080e7          	jalr	-1104(ra) # 800009ae <uartintr>
    80002e06:	b7ed                	j	80002df0 <devintr+0x5e>
			virtio_disk_intr();
    80002e08:	00004097          	auipc	ra,0x4
    80002e0c:	d5e080e7          	jalr	-674(ra) # 80006b66 <virtio_disk_intr>
    80002e10:	b7c5                	j	80002df0 <devintr+0x5e>
		if (cpuid() == 0)
    80002e12:	fffff097          	auipc	ra,0xfffff
    80002e16:	e7a080e7          	jalr	-390(ra) # 80001c8c <cpuid>
    80002e1a:	c901                	beqz	a0,80002e2a <devintr+0x98>
  asm volatile("csrr %0, sip" : "=r" (x) );
    80002e1c:	144027f3          	csrr	a5,sip
		w_sip(r_sip() & ~2);
    80002e20:	9bf5                	andi	a5,a5,-3
  asm volatile("csrw sip, %0" : : "r" (x));
    80002e22:	14479073          	csrw	sip,a5
		return 2;
    80002e26:	4509                	li	a0,2
    80002e28:	b761                	j	80002db0 <devintr+0x1e>
			clockintr();
    80002e2a:	00000097          	auipc	ra,0x0
    80002e2e:	f14080e7          	jalr	-236(ra) # 80002d3e <clockintr>
    80002e32:	b7ed                	j	80002e1c <devintr+0x8a>

0000000080002e34 <usertrap>:
{
    80002e34:	1101                	addi	sp,sp,-32
    80002e36:	ec06                	sd	ra,24(sp)
    80002e38:	e822                	sd	s0,16(sp)
    80002e3a:	e426                	sd	s1,8(sp)
    80002e3c:	e04a                	sd	s2,0(sp)
    80002e3e:	1000                	addi	s0,sp,32
  asm volatile("csrr %0, sstatus" : "=r" (x) );
    80002e40:	100027f3          	csrr	a5,sstatus
	if ((r_sstatus() & SSTATUS_SPP) != 0)
    80002e44:	1007f793          	andi	a5,a5,256
    80002e48:	efb5                	bnez	a5,80002ec4 <usertrap+0x90>
  asm volatile("csrw stvec, %0" : : "r" (x));
    80002e4a:	00003797          	auipc	a5,0x3
    80002e4e:	6c678793          	addi	a5,a5,1734 # 80006510 <kernelvec>
    80002e52:	10579073          	csrw	stvec,a5
	struct proc *p = myproc();
    80002e56:	fffff097          	auipc	ra,0xfffff
    80002e5a:	e62080e7          	jalr	-414(ra) # 80001cb8 <myproc>
    80002e5e:	84aa                	mv	s1,a0
	p->trapframe->epc = r_sepc();
    80002e60:	713c                	ld	a5,96(a0)
  asm volatile("csrr %0, sepc" : "=r" (x) );
    80002e62:	14102773          	csrr	a4,sepc
    80002e66:	ef98                	sd	a4,24(a5)
  asm volatile("csrr %0, scause" : "=r" (x) );
    80002e68:	14202773          	csrr	a4,scause
	if (r_scause() == 8)
    80002e6c:	47a1                	li	a5,8
    80002e6e:	06f70363          	beq	a4,a5,80002ed4 <usertrap+0xa0>
    80002e72:	14202773          	csrr	a4,scause
	else if (r_scause() == 15)
    80002e76:	47bd                	li	a5,15
    80002e78:	0af71563          	bne	a4,a5,80002f22 <usertrap+0xee>
  asm volatile("csrr %0, stval" : "=r" (x) );
    80002e7c:	14302973          	csrr	s2,stval
		if (addr >= MAXVA || (addr < p->trapframe->sp && addr >= (p->trapframe->sp - PGSIZE)))
    80002e80:	57fd                	li	a5,-1
    80002e82:	83e9                	srli	a5,a5,0x1a
    80002e84:	0127ea63          	bltu	a5,s2,80002e98 <usertrap+0x64>
    80002e88:	713c                	ld	a5,96(a0)
    80002e8a:	7b9c                	ld	a5,48(a5)
    80002e8c:	00f97b63          	bgeu	s2,a5,80002ea2 <usertrap+0x6e>
    80002e90:	777d                	lui	a4,0xfffff
    80002e92:	97ba                	add	a5,a5,a4
    80002e94:	00f96763          	bltu	s2,a5,80002ea2 <usertrap+0x6e>
			setkilled(p);
    80002e98:	8526                	mv	a0,s1
    80002e9a:	00000097          	auipc	ra,0x0
    80002e9e:	afc080e7          	jalr	-1284(ra) # 80002996 <setkilled>
		if (cowalloc(p->pagetable, PGROUNDDOWN(addr)) < 0)
    80002ea2:	75fd                	lui	a1,0xfffff
    80002ea4:	00b975b3          	and	a1,s2,a1
    80002ea8:	6ca8                	ld	a0,88(s1)
    80002eaa:	00000097          	auipc	ra,0x0
    80002eae:	d60080e7          	jalr	-672(ra) # 80002c0a <cowalloc>
	int which_dev = 0;
    80002eb2:	4901                	li	s2,0
		if (cowalloc(p->pagetable, PGROUNDDOWN(addr)) < 0)
    80002eb4:	04055163          	bgez	a0,80002ef6 <usertrap+0xc2>
			setkilled(p);
    80002eb8:	8526                	mv	a0,s1
    80002eba:	00000097          	auipc	ra,0x0
    80002ebe:	adc080e7          	jalr	-1316(ra) # 80002996 <setkilled>
    80002ec2:	a815                	j	80002ef6 <usertrap+0xc2>
		panic("usertrap: not from user mode");
    80002ec4:	00005517          	auipc	a0,0x5
    80002ec8:	4a450513          	addi	a0,a0,1188 # 80008368 <states.2512+0x58>
    80002ecc:	ffffd097          	auipc	ra,0xffffd
    80002ed0:	678080e7          	jalr	1656(ra) # 80000544 <panic>
		if (p->killed)
    80002ed4:	591c                	lw	a5,48(a0)
    80002ed6:	e3a1                	bnez	a5,80002f16 <usertrap+0xe2>
		p->trapframe->epc += 4;
    80002ed8:	70b8                	ld	a4,96(s1)
    80002eda:	6f1c                	ld	a5,24(a4)
    80002edc:	0791                	addi	a5,a5,4
    80002ede:	ef1c                	sd	a5,24(a4)
  asm volatile("csrr %0, sstatus" : "=r" (x) );
    80002ee0:	100027f3          	csrr	a5,sstatus
  w_sstatus(r_sstatus() | SSTATUS_SIE);
    80002ee4:	0027e793          	ori	a5,a5,2
  asm volatile("csrw sstatus, %0" : : "r" (x));
    80002ee8:	10079073          	csrw	sstatus,a5
		syscall();
    80002eec:	00000097          	auipc	ra,0x0
    80002ef0:	344080e7          	jalr	836(ra) # 80003230 <syscall>
	int which_dev = 0;
    80002ef4:	4901                	li	s2,0
	if (killed(p))
    80002ef6:	8526                	mv	a0,s1
    80002ef8:	00000097          	auipc	ra,0x0
    80002efc:	ad4080e7          	jalr	-1324(ra) # 800029cc <killed>
    80002f00:	e571                	bnez	a0,80002fcc <usertrap+0x198>
	usertrapret();
    80002f02:	00000097          	auipc	ra,0x0
    80002f06:	da6080e7          	jalr	-602(ra) # 80002ca8 <usertrapret>
}
    80002f0a:	60e2                	ld	ra,24(sp)
    80002f0c:	6442                	ld	s0,16(sp)
    80002f0e:	64a2                	ld	s1,8(sp)
    80002f10:	6902                	ld	s2,0(sp)
    80002f12:	6105                	addi	sp,sp,32
    80002f14:	8082                	ret
			exit(-1);
    80002f16:	557d                	li	a0,-1
    80002f18:	00000097          	auipc	ra,0x0
    80002f1c:	90e080e7          	jalr	-1778(ra) # 80002826 <exit>
    80002f20:	bf65                	j	80002ed8 <usertrap+0xa4>
	else if ((which_dev = devintr()) != 0)
    80002f22:	00000097          	auipc	ra,0x0
    80002f26:	e70080e7          	jalr	-400(ra) # 80002d92 <devintr>
    80002f2a:	892a                	mv	s2,a0
    80002f2c:	c13d                	beqz	a0,80002f92 <usertrap+0x15e>
		if (p != 0 && which_dev == 2 && p->checkifAlarmOn == 0)
    80002f2e:	4789                	li	a5,2
    80002f30:	fcf513e3          	bne	a0,a5,80002ef6 <usertrap+0xc2>
    80002f34:	1804a783          	lw	a5,384(s1)
    80002f38:	cf89                	beqz	a5,80002f52 <usertrap+0x11e>
	if (killed(p))
    80002f3a:	8526                	mv	a0,s1
    80002f3c:	00000097          	auipc	ra,0x0
    80002f40:	a90080e7          	jalr	-1392(ra) # 800029cc <killed>
    80002f44:	cd41                	beqz	a0,80002fdc <usertrap+0x1a8>
		exit(-1);
    80002f46:	557d                	li	a0,-1
    80002f48:	00000097          	auipc	ra,0x0
    80002f4c:	8de080e7          	jalr	-1826(ra) # 80002826 <exit>
	if (which_dev == 2)
    80002f50:	a071                	j	80002fdc <usertrap+0x1a8>
			struct trapframe *tf = kalloc();
    80002f52:	ffffe097          	auipc	ra,0xffffe
    80002f56:	d22080e7          	jalr	-734(ra) # 80000c74 <kalloc>
    80002f5a:	892a                	mv	s2,a0
			memmove(tf, p->trapframe, PGSIZE);
    80002f5c:	6605                	lui	a2,0x1
    80002f5e:	70ac                	ld	a1,96(s1)
    80002f60:	ffffe097          	auipc	ra,0xffffe
    80002f64:	fa4080e7          	jalr	-92(ra) # 80000f04 <memmove>
			p->alarm_handler = tf;
    80002f68:	1724b823          	sd	s2,368(s1)
			p->sigticks++;
    80002f6c:	1844a783          	lw	a5,388(s1)
    80002f70:	2785                	addiw	a5,a5,1
    80002f72:	0007871b          	sext.w	a4,a5
    80002f76:	18f4a223          	sw	a5,388(s1)
			if (p->sigticks >= p->maxticks)
    80002f7a:	1884a783          	lw	a5,392(s1)
    80002f7e:	faf74ee3          	blt	a4,a5,80002f3a <usertrap+0x106>
				p->checkifAlarmOn = 1;
    80002f82:	4785                	li	a5,1
    80002f84:	18f4a023          	sw	a5,384(s1)
				p->trapframe->epc = p->handler;
    80002f88:	70bc                	ld	a5,96(s1)
    80002f8a:	1784b703          	ld	a4,376(s1)
    80002f8e:	ef98                	sd	a4,24(a5)
    80002f90:	b76d                	j	80002f3a <usertrap+0x106>
  asm volatile("csrr %0, scause" : "=r" (x) );
    80002f92:	142025f3          	csrr	a1,scause
		printf("usertrap(): unexpected scause %p pid=%d\n", r_scause(), p->pid);
    80002f96:	5c90                	lw	a2,56(s1)
    80002f98:	00005517          	auipc	a0,0x5
    80002f9c:	3f050513          	addi	a0,a0,1008 # 80008388 <states.2512+0x78>
    80002fa0:	ffffd097          	auipc	ra,0xffffd
    80002fa4:	5ee080e7          	jalr	1518(ra) # 8000058e <printf>
  asm volatile("csrr %0, sepc" : "=r" (x) );
    80002fa8:	141025f3          	csrr	a1,sepc
  asm volatile("csrr %0, stval" : "=r" (x) );
    80002fac:	14302673          	csrr	a2,stval
		printf("            sepc=%p stval=%p\n", r_sepc(), r_stval());
    80002fb0:	00005517          	auipc	a0,0x5
    80002fb4:	40850513          	addi	a0,a0,1032 # 800083b8 <states.2512+0xa8>
    80002fb8:	ffffd097          	auipc	ra,0xffffd
    80002fbc:	5d6080e7          	jalr	1494(ra) # 8000058e <printf>
		setkilled(p);
    80002fc0:	8526                	mv	a0,s1
    80002fc2:	00000097          	auipc	ra,0x0
    80002fc6:	9d4080e7          	jalr	-1580(ra) # 80002996 <setkilled>
    80002fca:	b735                	j	80002ef6 <usertrap+0xc2>
		exit(-1);
    80002fcc:	557d                	li	a0,-1
    80002fce:	00000097          	auipc	ra,0x0
    80002fd2:	858080e7          	jalr	-1960(ra) # 80002826 <exit>
	if (which_dev == 2)
    80002fd6:	4789                	li	a5,2
    80002fd8:	f2f915e3          	bne	s2,a5,80002f02 <usertrap+0xce>
		yield();
    80002fdc:	fffff097          	auipc	ra,0xfffff
    80002fe0:	406080e7          	jalr	1030(ra) # 800023e2 <yield>
    80002fe4:	bf39                	j	80002f02 <usertrap+0xce>

0000000080002fe6 <kerneltrap>:
{
    80002fe6:	7179                	addi	sp,sp,-48
    80002fe8:	f406                	sd	ra,40(sp)
    80002fea:	f022                	sd	s0,32(sp)
    80002fec:	ec26                	sd	s1,24(sp)
    80002fee:	e84a                	sd	s2,16(sp)
    80002ff0:	e44e                	sd	s3,8(sp)
    80002ff2:	1800                	addi	s0,sp,48
  asm volatile("csrr %0, sepc" : "=r" (x) );
    80002ff4:	14102973          	csrr	s2,sepc
  asm volatile("csrr %0, sstatus" : "=r" (x) );
    80002ff8:	100024f3          	csrr	s1,sstatus
  asm volatile("csrr %0, scause" : "=r" (x) );
    80002ffc:	142029f3          	csrr	s3,scause
	if ((sstatus & SSTATUS_SPP) == 0)
    80003000:	1004f793          	andi	a5,s1,256
    80003004:	cb85                	beqz	a5,80003034 <kerneltrap+0x4e>
  asm volatile("csrr %0, sstatus" : "=r" (x) );
    80003006:	100027f3          	csrr	a5,sstatus
  return (x & SSTATUS_SIE) != 0;
    8000300a:	8b89                	andi	a5,a5,2
	if (intr_get() != 0)
    8000300c:	ef85                	bnez	a5,80003044 <kerneltrap+0x5e>
	if ((which_dev = devintr()) == 0)
    8000300e:	00000097          	auipc	ra,0x0
    80003012:	d84080e7          	jalr	-636(ra) # 80002d92 <devintr>
    80003016:	cd1d                	beqz	a0,80003054 <kerneltrap+0x6e>
	if (which_dev == 2 && myproc() != 0 && myproc()->state == RUNNING)
    80003018:	4789                	li	a5,2
    8000301a:	06f50a63          	beq	a0,a5,8000308e <kerneltrap+0xa8>
  asm volatile("csrw sepc, %0" : : "r" (x));
    8000301e:	14191073          	csrw	sepc,s2
  asm volatile("csrw sstatus, %0" : : "r" (x));
    80003022:	10049073          	csrw	sstatus,s1
}
    80003026:	70a2                	ld	ra,40(sp)
    80003028:	7402                	ld	s0,32(sp)
    8000302a:	64e2                	ld	s1,24(sp)
    8000302c:	6942                	ld	s2,16(sp)
    8000302e:	69a2                	ld	s3,8(sp)
    80003030:	6145                	addi	sp,sp,48
    80003032:	8082                	ret
		panic("kerneltrap: not from supervisor mode");
    80003034:	00005517          	auipc	a0,0x5
    80003038:	3a450513          	addi	a0,a0,932 # 800083d8 <states.2512+0xc8>
    8000303c:	ffffd097          	auipc	ra,0xffffd
    80003040:	508080e7          	jalr	1288(ra) # 80000544 <panic>
		panic("kerneltrap: interrupts enabled");
    80003044:	00005517          	auipc	a0,0x5
    80003048:	3bc50513          	addi	a0,a0,956 # 80008400 <states.2512+0xf0>
    8000304c:	ffffd097          	auipc	ra,0xffffd
    80003050:	4f8080e7          	jalr	1272(ra) # 80000544 <panic>
		printf("scause %p\n", scause);
    80003054:	85ce                	mv	a1,s3
    80003056:	00005517          	auipc	a0,0x5
    8000305a:	3ca50513          	addi	a0,a0,970 # 80008420 <states.2512+0x110>
    8000305e:	ffffd097          	auipc	ra,0xffffd
    80003062:	530080e7          	jalr	1328(ra) # 8000058e <printf>
  asm volatile("csrr %0, sepc" : "=r" (x) );
    80003066:	141025f3          	csrr	a1,sepc
  asm volatile("csrr %0, stval" : "=r" (x) );
    8000306a:	14302673          	csrr	a2,stval
		printf("sepc=%p stval=%p\n", r_sepc(), r_stval());
    8000306e:	00005517          	auipc	a0,0x5
    80003072:	3c250513          	addi	a0,a0,962 # 80008430 <states.2512+0x120>
    80003076:	ffffd097          	auipc	ra,0xffffd
    8000307a:	518080e7          	jalr	1304(ra) # 8000058e <printf>
		panic("kerneltrap");
    8000307e:	00005517          	auipc	a0,0x5
    80003082:	3ca50513          	addi	a0,a0,970 # 80008448 <states.2512+0x138>
    80003086:	ffffd097          	auipc	ra,0xffffd
    8000308a:	4be080e7          	jalr	1214(ra) # 80000544 <panic>
	if (which_dev == 2 && myproc() != 0 && myproc()->state == RUNNING)
    8000308e:	fffff097          	auipc	ra,0xfffff
    80003092:	c2a080e7          	jalr	-982(ra) # 80001cb8 <myproc>
    80003096:	d541                	beqz	a0,8000301e <kerneltrap+0x38>
    80003098:	fffff097          	auipc	ra,0xfffff
    8000309c:	c20080e7          	jalr	-992(ra) # 80001cb8 <myproc>
    800030a0:	5118                	lw	a4,32(a0)
    800030a2:	4791                	li	a5,4
    800030a4:	f6f71de3          	bne	a4,a5,8000301e <kerneltrap+0x38>
		yield();
    800030a8:	fffff097          	auipc	ra,0xfffff
    800030ac:	33a080e7          	jalr	826(ra) # 800023e2 <yield>
    800030b0:	b7bd                	j	8000301e <kerneltrap+0x38>

00000000800030b2 <argraw>:
    800030b2:	1101                	addi	sp,sp,-32
    800030b4:	ec06                	sd	ra,24(sp)
    800030b6:	e822                	sd	s0,16(sp)
    800030b8:	e426                	sd	s1,8(sp)
    800030ba:	1000                	addi	s0,sp,32
    800030bc:	84aa                	mv	s1,a0
    800030be:	fffff097          	auipc	ra,0xfffff
    800030c2:	bfa080e7          	jalr	-1030(ra) # 80001cb8 <myproc>
    800030c6:	4795                	li	a5,5
    800030c8:	0497e163          	bltu	a5,s1,8000310a <argraw+0x58>
    800030cc:	048a                	slli	s1,s1,0x2
    800030ce:	00005717          	auipc	a4,0x5
    800030d2:	4d270713          	addi	a4,a4,1234 # 800085a0 <states.2512+0x290>
    800030d6:	94ba                	add	s1,s1,a4
    800030d8:	409c                	lw	a5,0(s1)
    800030da:	97ba                	add	a5,a5,a4
    800030dc:	8782                	jr	a5
    800030de:	713c                	ld	a5,96(a0)
    800030e0:	7ba8                	ld	a0,112(a5)
    800030e2:	60e2                	ld	ra,24(sp)
    800030e4:	6442                	ld	s0,16(sp)
    800030e6:	64a2                	ld	s1,8(sp)
    800030e8:	6105                	addi	sp,sp,32
    800030ea:	8082                	ret
    800030ec:	713c                	ld	a5,96(a0)
    800030ee:	7fa8                	ld	a0,120(a5)
    800030f0:	bfcd                	j	800030e2 <argraw+0x30>
    800030f2:	713c                	ld	a5,96(a0)
    800030f4:	63c8                	ld	a0,128(a5)
    800030f6:	b7f5                	j	800030e2 <argraw+0x30>
    800030f8:	713c                	ld	a5,96(a0)
    800030fa:	67c8                	ld	a0,136(a5)
    800030fc:	b7dd                	j	800030e2 <argraw+0x30>
    800030fe:	713c                	ld	a5,96(a0)
    80003100:	6bc8                	ld	a0,144(a5)
    80003102:	b7c5                	j	800030e2 <argraw+0x30>
    80003104:	713c                	ld	a5,96(a0)
    80003106:	6fc8                	ld	a0,152(a5)
    80003108:	bfe9                	j	800030e2 <argraw+0x30>
    8000310a:	00005517          	auipc	a0,0x5
    8000310e:	34e50513          	addi	a0,a0,846 # 80008458 <states.2512+0x148>
    80003112:	ffffd097          	auipc	ra,0xffffd
    80003116:	432080e7          	jalr	1074(ra) # 80000544 <panic>

000000008000311a <fetchaddr>:
    8000311a:	1101                	addi	sp,sp,-32
    8000311c:	ec06                	sd	ra,24(sp)
    8000311e:	e822                	sd	s0,16(sp)
    80003120:	e426                	sd	s1,8(sp)
    80003122:	e04a                	sd	s2,0(sp)
    80003124:	1000                	addi	s0,sp,32
    80003126:	84aa                	mv	s1,a0
    80003128:	892e                	mv	s2,a1
    8000312a:	fffff097          	auipc	ra,0xfffff
    8000312e:	b8e080e7          	jalr	-1138(ra) # 80001cb8 <myproc>
    80003132:	693c                	ld	a5,80(a0)
    80003134:	02f4f863          	bgeu	s1,a5,80003164 <fetchaddr+0x4a>
    80003138:	00848713          	addi	a4,s1,8
    8000313c:	02e7e663          	bltu	a5,a4,80003168 <fetchaddr+0x4e>
    80003140:	46a1                	li	a3,8
    80003142:	8626                	mv	a2,s1
    80003144:	85ca                	mv	a1,s2
    80003146:	6d28                	ld	a0,88(a0)
    80003148:	ffffe097          	auipc	ra,0xffffe
    8000314c:	7b0080e7          	jalr	1968(ra) # 800018f8 <copyin>
    80003150:	00a03533          	snez	a0,a0
    80003154:	40a00533          	neg	a0,a0
    80003158:	60e2                	ld	ra,24(sp)
    8000315a:	6442                	ld	s0,16(sp)
    8000315c:	64a2                	ld	s1,8(sp)
    8000315e:	6902                	ld	s2,0(sp)
    80003160:	6105                	addi	sp,sp,32
    80003162:	8082                	ret
    80003164:	557d                	li	a0,-1
    80003166:	bfcd                	j	80003158 <fetchaddr+0x3e>
    80003168:	557d                	li	a0,-1
    8000316a:	b7fd                	j	80003158 <fetchaddr+0x3e>

000000008000316c <fetchstr>:
    8000316c:	7179                	addi	sp,sp,-48
    8000316e:	f406                	sd	ra,40(sp)
    80003170:	f022                	sd	s0,32(sp)
    80003172:	ec26                	sd	s1,24(sp)
    80003174:	e84a                	sd	s2,16(sp)
    80003176:	e44e                	sd	s3,8(sp)
    80003178:	1800                	addi	s0,sp,48
    8000317a:	892a                	mv	s2,a0
    8000317c:	84ae                	mv	s1,a1
    8000317e:	89b2                	mv	s3,a2
    80003180:	fffff097          	auipc	ra,0xfffff
    80003184:	b38080e7          	jalr	-1224(ra) # 80001cb8 <myproc>
    80003188:	86ce                	mv	a3,s3
    8000318a:	864a                	mv	a2,s2
    8000318c:	85a6                	mv	a1,s1
    8000318e:	6d28                	ld	a0,88(a0)
    80003190:	ffffe097          	auipc	ra,0xffffe
    80003194:	7f4080e7          	jalr	2036(ra) # 80001984 <copyinstr>
    80003198:	00054e63          	bltz	a0,800031b4 <fetchstr+0x48>
    8000319c:	8526                	mv	a0,s1
    8000319e:	ffffe097          	auipc	ra,0xffffe
    800031a2:	e8a080e7          	jalr	-374(ra) # 80001028 <strlen>
    800031a6:	70a2                	ld	ra,40(sp)
    800031a8:	7402                	ld	s0,32(sp)
    800031aa:	64e2                	ld	s1,24(sp)
    800031ac:	6942                	ld	s2,16(sp)
    800031ae:	69a2                	ld	s3,8(sp)
    800031b0:	6145                	addi	sp,sp,48
    800031b2:	8082                	ret
    800031b4:	557d                	li	a0,-1
    800031b6:	bfc5                	j	800031a6 <fetchstr+0x3a>

00000000800031b8 <argint>:
    800031b8:	1101                	addi	sp,sp,-32
    800031ba:	ec06                	sd	ra,24(sp)
    800031bc:	e822                	sd	s0,16(sp)
    800031be:	e426                	sd	s1,8(sp)
    800031c0:	1000                	addi	s0,sp,32
    800031c2:	84ae                	mv	s1,a1
    800031c4:	00000097          	auipc	ra,0x0
    800031c8:	eee080e7          	jalr	-274(ra) # 800030b2 <argraw>
    800031cc:	c088                	sw	a0,0(s1)
    800031ce:	60e2                	ld	ra,24(sp)
    800031d0:	6442                	ld	s0,16(sp)
    800031d2:	64a2                	ld	s1,8(sp)
    800031d4:	6105                	addi	sp,sp,32
    800031d6:	8082                	ret

00000000800031d8 <argaddr>:
    800031d8:	1101                	addi	sp,sp,-32
    800031da:	ec06                	sd	ra,24(sp)
    800031dc:	e822                	sd	s0,16(sp)
    800031de:	e426                	sd	s1,8(sp)
    800031e0:	1000                	addi	s0,sp,32
    800031e2:	84ae                	mv	s1,a1
    800031e4:	00000097          	auipc	ra,0x0
    800031e8:	ece080e7          	jalr	-306(ra) # 800030b2 <argraw>
    800031ec:	e088                	sd	a0,0(s1)
    800031ee:	60e2                	ld	ra,24(sp)
    800031f0:	6442                	ld	s0,16(sp)
    800031f2:	64a2                	ld	s1,8(sp)
    800031f4:	6105                	addi	sp,sp,32
    800031f6:	8082                	ret

00000000800031f8 <argstr>:
    800031f8:	7179                	addi	sp,sp,-48
    800031fa:	f406                	sd	ra,40(sp)
    800031fc:	f022                	sd	s0,32(sp)
    800031fe:	ec26                	sd	s1,24(sp)
    80003200:	e84a                	sd	s2,16(sp)
    80003202:	1800                	addi	s0,sp,48
    80003204:	84ae                	mv	s1,a1
    80003206:	8932                	mv	s2,a2
    80003208:	fd840593          	addi	a1,s0,-40
    8000320c:	00000097          	auipc	ra,0x0
    80003210:	fcc080e7          	jalr	-52(ra) # 800031d8 <argaddr>
    80003214:	864a                	mv	a2,s2
    80003216:	85a6                	mv	a1,s1
    80003218:	fd843503          	ld	a0,-40(s0)
    8000321c:	00000097          	auipc	ra,0x0
    80003220:	f50080e7          	jalr	-176(ra) # 8000316c <fetchstr>
    80003224:	70a2                	ld	ra,40(sp)
    80003226:	7402                	ld	s0,32(sp)
    80003228:	64e2                	ld	s1,24(sp)
    8000322a:	6942                	ld	s2,16(sp)
    8000322c:	6145                	addi	sp,sp,48
    8000322e:	8082                	ret

0000000080003230 <syscall>:
    80003230:	711d                	addi	sp,sp,-96
    80003232:	ec86                	sd	ra,88(sp)
    80003234:	e8a2                	sd	s0,80(sp)
    80003236:	e4a6                	sd	s1,72(sp)
    80003238:	e0ca                	sd	s2,64(sp)
    8000323a:	fc4e                	sd	s3,56(sp)
    8000323c:	f852                	sd	s4,48(sp)
    8000323e:	f456                	sd	s5,40(sp)
    80003240:	f05a                	sd	s6,32(sp)
    80003242:	ec5e                	sd	s7,24(sp)
    80003244:	e862                	sd	s8,16(sp)
    80003246:	e466                	sd	s9,8(sp)
    80003248:	e06a                	sd	s10,0(sp)
    8000324a:	1080                	addi	s0,sp,96
    8000324c:	fffff097          	auipc	ra,0xfffff
    80003250:	a6c080e7          	jalr	-1428(ra) # 80001cb8 <myproc>
    80003254:	8a2a                	mv	s4,a0
    80003256:	7124                	ld	s1,96(a0)
    80003258:	74dc                	ld	a5,168(s1)
    8000325a:	00078b1b          	sext.w	s6,a5
    8000325e:	37fd                	addiw	a5,a5,-1
    80003260:	4769                	li	a4,26
    80003262:	06f76f63          	bltu	a4,a5,800032e0 <syscall+0xb0>
    80003266:	003b1713          	slli	a4,s6,0x3
    8000326a:	00005797          	auipc	a5,0x5
    8000326e:	34e78793          	addi	a5,a5,846 # 800085b8 <syscalls>
    80003272:	97ba                	add	a5,a5,a4
    80003274:	0007bd03          	ld	s10,0(a5)
    80003278:	060d0463          	beqz	s10,800032e0 <syscall+0xb0>
    8000327c:	8c8a                	mv	s9,sp
    8000327e:	fffb0c1b          	addiw	s8,s6,-1
    80003282:	004c1713          	slli	a4,s8,0x4
    80003286:	00005797          	auipc	a5,0x5
    8000328a:	79278793          	addi	a5,a5,1938 # 80008a18 <syscall_info>
    8000328e:	97ba                	add	a5,a5,a4
